SF:/home/mako10k/lzscr/crates/lzscr-analyzer/src/lib.rs
FN:1118,_RNvNtCs5AVHztSKVKK_14lzscr_analyzer5testss_29shadowing_with_typebind_param
FN:1102,_RNvNtCs5AVHztSKVKK_14lzscr_analyzer5testss_30detects_simple_duplicate_apply
FN:1110,_RNvNtCs5AVHztSKVKK_14lzscr_analyzer5testss_34unused_param_with_typebind_pattern
FN:646,_RNCNCNvNvCs5AVHztSKVKK_14lzscr_analyzer17analyze_shadowing4walk00B7_
FN:709,_RNCNCNvNvCs5AVHztSKVKK_14lzscr_analyzer17analyze_shadowing4walks0_00B7_
FN:289,_RNCNvCs5AVHztSKVKK_14lzscr_analyzer18analyze_duplicates0B3_
FN:298,_RNCNvCs5AVHztSKVKK_14lzscr_analyzer18analyze_duplicatess_0B3_
FN:646,_RNCNvNvCs5AVHztSKVKK_14lzscr_analyzer17analyze_shadowing4walk0B5_
FN:709,_RNCNvNvCs5AVHztSKVKK_14lzscr_analyzer17analyze_shadowing4walks0_0B5_
FN:712,_RNCNvNvCs5AVHztSKVKK_14lzscr_analyzer17analyze_shadowing4walks1_0B5_
FN:649,_RNCNvNvCs5AVHztSKVKK_14lzscr_analyzer17analyze_shadowing4walks_0B5_
FN:238,_RNCNvNvCs5AVHztSKVKK_14lzscr_analyzer18analyze_duplicates7collect0B5_
FN:784,_RNCNvNvCs5AVHztSKVKK_14lzscr_analyzer21analyze_unused_params11binds_param0B5_
FN:786,_RNCNvNvCs5AVHztSKVKK_14lzscr_analyzer21analyze_unused_params11binds_params0_0B5_
FN:787,_RNCNvNvCs5AVHztSKVKK_14lzscr_analyzer21analyze_unused_params11binds_params1_0B5_
FN:785,_RNCNvNvCs5AVHztSKVKK_14lzscr_analyzer21analyze_unused_params11binds_params_0B5_
FN:761,_RNCNvNvCs5AVHztSKVKK_14lzscr_analyzer21analyze_unused_params7used_in0B5_
FN:342,_RNCNvCs5AVHztSKVKK_14lzscr_analyzer17default_allowlist0B3_
FN:889,_RNCNvNvCs5AVHztSKVKK_14lzscr_analyzer27analyze_unused_let_bindings10binds_name0B5_
FN:892,_RNCNvNvCs5AVHztSKVKK_14lzscr_analyzer27analyze_unused_let_bindings10binds_names0_0B5_
FN:891,_RNCNvNvCs5AVHztSKVKK_14lzscr_analyzer27analyze_unused_let_bindings10binds_names_0B5_
FN:913,_RNCNvNvCs5AVHztSKVKK_14lzscr_analyzer27analyze_unused_let_bindings7used_in0B5_
FN:916,_RNCNvNvCs5AVHztSKVKK_14lzscr_analyzer27analyze_unused_let_bindings7used_ins_0B5_
FN:334,_RNvCs5AVHztSKVKK_14lzscr_analyzer17default_allowlist
FN:357,_RNvCs5AVHztSKVKK_14lzscr_analyzer18analyze_ctor_arity
FN:424,_RNvCs5AVHztSKVKK_14lzscr_analyzer20analyze_unbound_refs
FN:1011,_RNvCs5AVHztSKVKK_14lzscr_analyzer22analyze_let_collisions
FN:881,_RNvCs5AVHztSKVKK_14lzscr_analyzer27analyze_unused_let_bindings
FN:361,_RNvNvCs5AVHztSKVKK_14lzscr_analyzer18analyze_ctor_arity13head_and_args
FN:371,_RNvNvCs5AVHztSKVKK_14lzscr_analyzer18analyze_ctor_arity5check
FN:426,_RNvNvCs5AVHztSKVKK_14lzscr_analyzer20analyze_unbound_refs4walk
FN:1014,_RNvNvCs5AVHztSKVKK_14lzscr_analyzer22analyze_let_collisions12collect_vars
FN:1045,_RNvNvCs5AVHztSKVKK_14lzscr_analyzer22analyze_let_collisions4walk
FN:884,_RNvNvCs5AVHztSKVKK_14lzscr_analyzer27analyze_unused_let_bindings10binds_name
FN:924,_RNvNvCs5AVHztSKVKK_14lzscr_analyzer27analyze_unused_let_bindings12collect_vars
FN:955,_RNvNvCs5AVHztSKVKK_14lzscr_analyzer27analyze_unused_let_bindings4walk
FN:899,_RNvNvCs5AVHztSKVKK_14lzscr_analyzer27analyze_unused_let_bindings7used_in
FN:450,_RNvNvNvCs5AVHztSKVKK_14lzscr_analyzer20analyze_unbound_refs4walk5binds
FN:531,_RNvNvNvCs5AVHztSKVKK_14lzscr_analyzer20analyze_unbound_refs4walks_5binds
FN:22,_RNvXCs5AVHztSKVKK_14lzscr_analyzerNtB2_14AnalyzeOptionsNtNtCs66KPHxksi63_4core7default7Default7default
FN:595,_RNvCs5AVHztSKVKK_14lzscr_analyzer17analyze_shadowing
FN:27,_RNvCs5AVHztSKVKK_14lzscr_analyzer18analyze_duplicates
FN:752,_RNvCs5AVHztSKVKK_14lzscr_analyzer21analyze_unused_params
FN:597,_RNvNvCs5AVHztSKVKK_14lzscr_analyzer17analyze_shadowing4walk
FN:192,_RNvNvCs5AVHztSKVKK_14lzscr_analyzer18analyze_duplicates12summary_repr
FN:227,_RNvNvCs5AVHztSKVKK_14lzscr_analyzer18analyze_duplicates14should_recurse
FN:29,_RNvNvCs5AVHztSKVKK_14lzscr_analyzer18analyze_duplicates18hash_pattern_shape
FN:231,_RNvNvCs5AVHztSKVKK_14lzscr_analyzer18analyze_duplicates7collect
FN:98,_RNvNvCs5AVHztSKVKK_14lzscr_analyzer18analyze_duplicates9hash_expr
FN:772,_RNvNvCs5AVHztSKVKK_14lzscr_analyzer21analyze_unused_params11binds_param
FN:792,_RNvNvCs5AVHztSKVKK_14lzscr_analyzer21analyze_unused_params4walk
FN:754,_RNvNvCs5AVHztSKVKK_14lzscr_analyzer21analyze_unused_params7used_in
FN:600,_RNvNvNvCs5AVHztSKVKK_14lzscr_analyzer17analyze_shadowing4walk10pat_idents
FN:666,_RNvNvNvCs5AVHztSKVKK_14lzscr_analyzer17analyze_shadowing4walks_10pat_idents
FN:101,_RNvNvNvCs5AVHztSKVKK_14lzscr_analyzer18analyze_duplicates9hash_expr2go
FN:796,_RNvNvNvCs5AVHztSKVKK_14lzscr_analyzer21analyze_unused_params4walk7collect
FN:1122,_RNCNvNtCs5AVHztSKVKK_14lzscr_analyzer5testss_29shadowing_with_typebind_param0B5_
FN:1106,_RNCNvNtCs5AVHztSKVKK_14lzscr_analyzer5testss_30detects_simple_duplicate_apply0B5_
FN:1114,_RNCNvNtCs5AVHztSKVKK_14lzscr_analyzer5testss_34unused_param_with_typebind_pattern0B5_
FN:595,_RNvCshafeh9ym3qt_14lzscr_analyzer17analyze_shadowing
FN:334,_RNvCshafeh9ym3qt_14lzscr_analyzer17default_allowlist
FN:357,_RNvCshafeh9ym3qt_14lzscr_analyzer18analyze_ctor_arity
FN:27,_RNvCshafeh9ym3qt_14lzscr_analyzer18analyze_duplicates
FN:424,_RNvCshafeh9ym3qt_14lzscr_analyzer20analyze_unbound_refs
FN:752,_RNvCshafeh9ym3qt_14lzscr_analyzer21analyze_unused_params
FN:1011,_RNvCshafeh9ym3qt_14lzscr_analyzer22analyze_let_collisions
FN:881,_RNvCshafeh9ym3qt_14lzscr_analyzer27analyze_unused_let_bindings
FN:597,_RNvNvCshafeh9ym3qt_14lzscr_analyzer17analyze_shadowing4walk
FN:361,_RNvNvCshafeh9ym3qt_14lzscr_analyzer18analyze_ctor_arity13head_and_args
FN:371,_RNvNvCshafeh9ym3qt_14lzscr_analyzer18analyze_ctor_arity5check
FN:192,_RNvNvCshafeh9ym3qt_14lzscr_analyzer18analyze_duplicates12summary_repr
FN:227,_RNvNvCshafeh9ym3qt_14lzscr_analyzer18analyze_duplicates14should_recurse
FN:29,_RNvNvCshafeh9ym3qt_14lzscr_analyzer18analyze_duplicates18hash_pattern_shape
FN:231,_RNvNvCshafeh9ym3qt_14lzscr_analyzer18analyze_duplicates7collect
FN:98,_RNvNvCshafeh9ym3qt_14lzscr_analyzer18analyze_duplicates9hash_expr
FN:426,_RNvNvCshafeh9ym3qt_14lzscr_analyzer20analyze_unbound_refs4walk
FN:772,_RNvNvCshafeh9ym3qt_14lzscr_analyzer21analyze_unused_params11binds_param
FN:792,_RNvNvCshafeh9ym3qt_14lzscr_analyzer21analyze_unused_params4walk
FN:754,_RNvNvCshafeh9ym3qt_14lzscr_analyzer21analyze_unused_params7used_in
FN:1014,_RNvNvCshafeh9ym3qt_14lzscr_analyzer22analyze_let_collisions12collect_vars
FN:1045,_RNvNvCshafeh9ym3qt_14lzscr_analyzer22analyze_let_collisions4walk
FN:884,_RNvNvCshafeh9ym3qt_14lzscr_analyzer27analyze_unused_let_bindings10binds_name
FN:924,_RNvNvCshafeh9ym3qt_14lzscr_analyzer27analyze_unused_let_bindings12collect_vars
FN:955,_RNvNvCshafeh9ym3qt_14lzscr_analyzer27analyze_unused_let_bindings4walk
FN:899,_RNvNvCshafeh9ym3qt_14lzscr_analyzer27analyze_unused_let_bindings7used_in
FN:600,_RNvNvNvCshafeh9ym3qt_14lzscr_analyzer17analyze_shadowing4walk10pat_idents
FN:666,_RNvNvNvCshafeh9ym3qt_14lzscr_analyzer17analyze_shadowing4walks_10pat_idents
FN:101,_RNvNvNvCshafeh9ym3qt_14lzscr_analyzer18analyze_duplicates9hash_expr2go
FN:450,_RNvNvNvCshafeh9ym3qt_14lzscr_analyzer20analyze_unbound_refs4walk5binds
FN:531,_RNvNvNvCshafeh9ym3qt_14lzscr_analyzer20analyze_unbound_refs4walks_5binds
FN:796,_RNvNvNvCshafeh9ym3qt_14lzscr_analyzer21analyze_unused_params4walk7collect
FN:22,_RNvXCshafeh9ym3qt_14lzscr_analyzerNtB2_14AnalyzeOptionsNtNtCs66KPHxksi63_4core7default7Default7default
FN:646,_RNCNCNvNvCshafeh9ym3qt_14lzscr_analyzer17analyze_shadowing4walk00B7_
FN:709,_RNCNCNvNvCshafeh9ym3qt_14lzscr_analyzer17analyze_shadowing4walks0_00B7_
FN:342,_RNCNvCshafeh9ym3qt_14lzscr_analyzer17default_allowlist0B3_
FN:289,_RNCNvCshafeh9ym3qt_14lzscr_analyzer18analyze_duplicates0B3_
FN:298,_RNCNvCshafeh9ym3qt_14lzscr_analyzer18analyze_duplicatess_0B3_
FN:646,_RNCNvNvCshafeh9ym3qt_14lzscr_analyzer17analyze_shadowing4walk0B5_
FN:709,_RNCNvNvCshafeh9ym3qt_14lzscr_analyzer17analyze_shadowing4walks0_0B5_
FN:712,_RNCNvNvCshafeh9ym3qt_14lzscr_analyzer17analyze_shadowing4walks1_0B5_
FN:649,_RNCNvNvCshafeh9ym3qt_14lzscr_analyzer17analyze_shadowing4walks_0B5_
FN:238,_RNCNvNvCshafeh9ym3qt_14lzscr_analyzer18analyze_duplicates7collect0B5_
FN:784,_RNCNvNvCshafeh9ym3qt_14lzscr_analyzer21analyze_unused_params11binds_param0B5_
FN:786,_RNCNvNvCshafeh9ym3qt_14lzscr_analyzer21analyze_unused_params11binds_params0_0B5_
FN:787,_RNCNvNvCshafeh9ym3qt_14lzscr_analyzer21analyze_unused_params11binds_params1_0B5_
FN:785,_RNCNvNvCshafeh9ym3qt_14lzscr_analyzer21analyze_unused_params11binds_params_0B5_
FN:761,_RNCNvNvCshafeh9ym3qt_14lzscr_analyzer21analyze_unused_params7used_in0B5_
FN:889,_RNCNvNvCshafeh9ym3qt_14lzscr_analyzer27analyze_unused_let_bindings10binds_name0B5_
FN:892,_RNCNvNvCshafeh9ym3qt_14lzscr_analyzer27analyze_unused_let_bindings10binds_names0_0B5_
FN:891,_RNCNvNvCshafeh9ym3qt_14lzscr_analyzer27analyze_unused_let_bindings10binds_names_0B5_
FN:913,_RNCNvNvCshafeh9ym3qt_14lzscr_analyzer27analyze_unused_let_bindings7used_in0B5_
FN:916,_RNCNvNvCshafeh9ym3qt_14lzscr_analyzer27analyze_unused_let_bindings7used_ins_0B5_
FNDA:1,_RNvNtCs5AVHztSKVKK_14lzscr_analyzer5testss_29shadowing_with_typebind_param
FNDA:1,_RNvNtCs5AVHztSKVKK_14lzscr_analyzer5testss_30detects_simple_duplicate_apply
FNDA:1,_RNvNtCs5AVHztSKVKK_14lzscr_analyzer5testss_34unused_param_with_typebind_pattern
FNDA:1,_RNCNCNvNvCs5AVHztSKVKK_14lzscr_analyzer17analyze_shadowing4walk00B7_
FNDA:0,_RNCNCNvNvCs5AVHztSKVKK_14lzscr_analyzer17analyze_shadowing4walks0_00B7_
FNDA:3,_RNCNvCs5AVHztSKVKK_14lzscr_analyzer18analyze_duplicates0B3_
FNDA:1,_RNCNvCs5AVHztSKVKK_14lzscr_analyzer18analyze_duplicatess_0B3_
FNDA:1,_RNCNvNvCs5AVHztSKVKK_14lzscr_analyzer17analyze_shadowing4walk0B5_
FNDA:0,_RNCNvNvCs5AVHztSKVKK_14lzscr_analyzer17analyze_shadowing4walks0_0B5_
FNDA:0,_RNCNvNvCs5AVHztSKVKK_14lzscr_analyzer17analyze_shadowing4walks1_0B5_
FNDA:0,_RNCNvNvCs5AVHztSKVKK_14lzscr_analyzer17analyze_shadowing4walks_0B5_
FNDA:3,_RNCNvNvCs5AVHztSKVKK_14lzscr_analyzer18analyze_duplicates7collect0B5_
FNDA:0,_RNCNvNvCs5AVHztSKVKK_14lzscr_analyzer21analyze_unused_params11binds_param0B5_
FNDA:0,_RNCNvNvCs5AVHztSKVKK_14lzscr_analyzer21analyze_unused_params11binds_params0_0B5_
FNDA:0,_RNCNvNvCs5AVHztSKVKK_14lzscr_analyzer21analyze_unused_params11binds_params1_0B5_
FNDA:0,_RNCNvNvCs5AVHztSKVKK_14lzscr_analyzer21analyze_unused_params11binds_params_0B5_
FNDA:0,_RNCNvNvCs5AVHztSKVKK_14lzscr_analyzer21analyze_unused_params7used_in0B5_
FNDA:0,_RNCNvCs5AVHztSKVKK_14lzscr_analyzer17default_allowlist0B3_
FNDA:0,_RNCNvNvCs5AVHztSKVKK_14lzscr_analyzer27analyze_unused_let_bindings10binds_name0B5_
FNDA:0,_RNCNvNvCs5AVHztSKVKK_14lzscr_analyzer27analyze_unused_let_bindings10binds_names0_0B5_
FNDA:0,_RNCNvNvCs5AVHztSKVKK_14lzscr_analyzer27analyze_unused_let_bindings10binds_names_0B5_
FNDA:0,_RNCNvNvCs5AVHztSKVKK_14lzscr_analyzer27analyze_unused_let_bindings7used_in0B5_
FNDA:0,_RNCNvNvCs5AVHztSKVKK_14lzscr_analyzer27analyze_unused_let_bindings7used_ins_0B5_
FNDA:0,_RNvCs5AVHztSKVKK_14lzscr_analyzer17default_allowlist
FNDA:0,_RNvCs5AVHztSKVKK_14lzscr_analyzer18analyze_ctor_arity
FNDA:0,_RNvCs5AVHztSKVKK_14lzscr_analyzer20analyze_unbound_refs
FNDA:0,_RNvCs5AVHztSKVKK_14lzscr_analyzer22analyze_let_collisions
FNDA:0,_RNvCs5AVHztSKVKK_14lzscr_analyzer27analyze_unused_let_bindings
FNDA:0,_RNvNvCs5AVHztSKVKK_14lzscr_analyzer18analyze_ctor_arity13head_and_args
FNDA:0,_RNvNvCs5AVHztSKVKK_14lzscr_analyzer18analyze_ctor_arity5check
FNDA:0,_RNvNvCs5AVHztSKVKK_14lzscr_analyzer20analyze_unbound_refs4walk
FNDA:0,_RNvNvCs5AVHztSKVKK_14lzscr_analyzer22analyze_let_collisions12collect_vars
FNDA:0,_RNvNvCs5AVHztSKVKK_14lzscr_analyzer22analyze_let_collisions4walk
FNDA:0,_RNvNvCs5AVHztSKVKK_14lzscr_analyzer27analyze_unused_let_bindings10binds_name
FNDA:0,_RNvNvCs5AVHztSKVKK_14lzscr_analyzer27analyze_unused_let_bindings12collect_vars
FNDA:0,_RNvNvCs5AVHztSKVKK_14lzscr_analyzer27analyze_unused_let_bindings4walk
FNDA:0,_RNvNvCs5AVHztSKVKK_14lzscr_analyzer27analyze_unused_let_bindings7used_in
FNDA:0,_RNvNvNvCs5AVHztSKVKK_14lzscr_analyzer20analyze_unbound_refs4walk5binds
FNDA:0,_RNvNvNvCs5AVHztSKVKK_14lzscr_analyzer20analyze_unbound_refs4walks_5binds
FNDA:0,_RNvXCs5AVHztSKVKK_14lzscr_analyzerNtB2_14AnalyzeOptionsNtNtCs66KPHxksi63_4core7default7Default7default
FNDA:1,_RNvCs5AVHztSKVKK_14lzscr_analyzer17analyze_shadowing
FNDA:1,_RNvCs5AVHztSKVKK_14lzscr_analyzer18analyze_duplicates
FNDA:1,_RNvCs5AVHztSKVKK_14lzscr_analyzer21analyze_unused_params
FNDA:5,_RNvNvCs5AVHztSKVKK_14lzscr_analyzer17analyze_shadowing4walk
FNDA:3,_RNvNvCs5AVHztSKVKK_14lzscr_analyzer18analyze_duplicates12summary_repr
FNDA:11,_RNvNvCs5AVHztSKVKK_14lzscr_analyzer18analyze_duplicates14should_recurse
FNDA:0,_RNvNvCs5AVHztSKVKK_14lzscr_analyzer18analyze_duplicates18hash_pattern_shape
FNDA:11,_RNvNvCs5AVHztSKVKK_14lzscr_analyzer18analyze_duplicates7collect
FNDA:11,_RNvNvCs5AVHztSKVKK_14lzscr_analyzer18analyze_duplicates9hash_expr
FNDA:0,_RNvNvCs5AVHztSKVKK_14lzscr_analyzer21analyze_unused_params11binds_param
FNDA:2,_RNvNvCs5AVHztSKVKK_14lzscr_analyzer21analyze_unused_params4walk
FNDA:1,_RNvNvCs5AVHztSKVKK_14lzscr_analyzer21analyze_unused_params7used_in
FNDA:3,_RNvNvNvCs5AVHztSKVKK_14lzscr_analyzer17analyze_shadowing4walk10pat_idents
FNDA:0,_RNvNvNvCs5AVHztSKVKK_14lzscr_analyzer17analyze_shadowing4walks_10pat_idents
FNDA:33,_RNvNvNvCs5AVHztSKVKK_14lzscr_analyzer18analyze_duplicates9hash_expr2go
FNDA:2,_RNvNvNvCs5AVHztSKVKK_14lzscr_analyzer21analyze_unused_params4walk7collect
FNDA:1,_RNCNvNtCs5AVHztSKVKK_14lzscr_analyzer5testss_29shadowing_with_typebind_param0B5_
FNDA:1,_RNCNvNtCs5AVHztSKVKK_14lzscr_analyzer5testss_30detects_simple_duplicate_apply0B5_
FNDA:1,_RNCNvNtCs5AVHztSKVKK_14lzscr_analyzer5testss_34unused_param_with_typebind_pattern0B5_
FNDA:0,_RNvCshafeh9ym3qt_14lzscr_analyzer17analyze_shadowing
FNDA:0,_RNvCshafeh9ym3qt_14lzscr_analyzer17default_allowlist
FNDA:0,_RNvCshafeh9ym3qt_14lzscr_analyzer18analyze_ctor_arity
FNDA:0,_RNvCshafeh9ym3qt_14lzscr_analyzer18analyze_duplicates
FNDA:0,_RNvCshafeh9ym3qt_14lzscr_analyzer20analyze_unbound_refs
FNDA:0,_RNvCshafeh9ym3qt_14lzscr_analyzer21analyze_unused_params
FNDA:0,_RNvCshafeh9ym3qt_14lzscr_analyzer22analyze_let_collisions
FNDA:0,_RNvCshafeh9ym3qt_14lzscr_analyzer27analyze_unused_let_bindings
FNDA:0,_RNvNvCshafeh9ym3qt_14lzscr_analyzer17analyze_shadowing4walk
FNDA:0,_RNvNvCshafeh9ym3qt_14lzscr_analyzer18analyze_ctor_arity13head_and_args
FNDA:0,_RNvNvCshafeh9ym3qt_14lzscr_analyzer18analyze_ctor_arity5check
FNDA:0,_RNvNvCshafeh9ym3qt_14lzscr_analyzer18analyze_duplicates12summary_repr
FNDA:0,_RNvNvCshafeh9ym3qt_14lzscr_analyzer18analyze_duplicates14should_recurse
FNDA:0,_RNvNvCshafeh9ym3qt_14lzscr_analyzer18analyze_duplicates18hash_pattern_shape
FNDA:0,_RNvNvCshafeh9ym3qt_14lzscr_analyzer18analyze_duplicates7collect
FNDA:0,_RNvNvCshafeh9ym3qt_14lzscr_analyzer18analyze_duplicates9hash_expr
FNDA:0,_RNvNvCshafeh9ym3qt_14lzscr_analyzer20analyze_unbound_refs4walk
FNDA:0,_RNvNvCshafeh9ym3qt_14lzscr_analyzer21analyze_unused_params11binds_param
FNDA:0,_RNvNvCshafeh9ym3qt_14lzscr_analyzer21analyze_unused_params4walk
FNDA:0,_RNvNvCshafeh9ym3qt_14lzscr_analyzer21analyze_unused_params7used_in
FNDA:0,_RNvNvCshafeh9ym3qt_14lzscr_analyzer22analyze_let_collisions12collect_vars
FNDA:0,_RNvNvCshafeh9ym3qt_14lzscr_analyzer22analyze_let_collisions4walk
FNDA:0,_RNvNvCshafeh9ym3qt_14lzscr_analyzer27analyze_unused_let_bindings10binds_name
FNDA:0,_RNvNvCshafeh9ym3qt_14lzscr_analyzer27analyze_unused_let_bindings12collect_vars
FNDA:0,_RNvNvCshafeh9ym3qt_14lzscr_analyzer27analyze_unused_let_bindings4walk
FNDA:0,_RNvNvCshafeh9ym3qt_14lzscr_analyzer27analyze_unused_let_bindings7used_in
FNDA:0,_RNvNvNvCshafeh9ym3qt_14lzscr_analyzer17analyze_shadowing4walk10pat_idents
FNDA:0,_RNvNvNvCshafeh9ym3qt_14lzscr_analyzer17analyze_shadowing4walks_10pat_idents
FNDA:0,_RNvNvNvCshafeh9ym3qt_14lzscr_analyzer18analyze_duplicates9hash_expr2go
FNDA:0,_RNvNvNvCshafeh9ym3qt_14lzscr_analyzer20analyze_unbound_refs4walk5binds
FNDA:0,_RNvNvNvCshafeh9ym3qt_14lzscr_analyzer20analyze_unbound_refs4walks_5binds
FNDA:0,_RNvNvNvCshafeh9ym3qt_14lzscr_analyzer21analyze_unused_params4walk7collect
FNDA:0,_RNvXCshafeh9ym3qt_14lzscr_analyzerNtB2_14AnalyzeOptionsNtNtCs66KPHxksi63_4core7default7Default7default
FNDA:0,_RNCNCNvNvCshafeh9ym3qt_14lzscr_analyzer17analyze_shadowing4walk00B7_
FNDA:0,_RNCNCNvNvCshafeh9ym3qt_14lzscr_analyzer17analyze_shadowing4walks0_00B7_
FNDA:0,_RNCNvCshafeh9ym3qt_14lzscr_analyzer17default_allowlist0B3_
FNDA:0,_RNCNvCshafeh9ym3qt_14lzscr_analyzer18analyze_duplicates0B3_
FNDA:0,_RNCNvCshafeh9ym3qt_14lzscr_analyzer18analyze_duplicatess_0B3_
FNDA:0,_RNCNvNvCshafeh9ym3qt_14lzscr_analyzer17analyze_shadowing4walk0B5_
FNDA:0,_RNCNvNvCshafeh9ym3qt_14lzscr_analyzer17analyze_shadowing4walks0_0B5_
FNDA:0,_RNCNvNvCshafeh9ym3qt_14lzscr_analyzer17analyze_shadowing4walks1_0B5_
FNDA:0,_RNCNvNvCshafeh9ym3qt_14lzscr_analyzer17analyze_shadowing4walks_0B5_
FNDA:0,_RNCNvNvCshafeh9ym3qt_14lzscr_analyzer18analyze_duplicates7collect0B5_
FNDA:0,_RNCNvNvCshafeh9ym3qt_14lzscr_analyzer21analyze_unused_params11binds_param0B5_
FNDA:0,_RNCNvNvCshafeh9ym3qt_14lzscr_analyzer21analyze_unused_params11binds_params0_0B5_
FNDA:0,_RNCNvNvCshafeh9ym3qt_14lzscr_analyzer21analyze_unused_params11binds_params1_0B5_
FNDA:0,_RNCNvNvCshafeh9ym3qt_14lzscr_analyzer21analyze_unused_params11binds_params_0B5_
FNDA:0,_RNCNvNvCshafeh9ym3qt_14lzscr_analyzer21analyze_unused_params7used_in0B5_
FNDA:0,_RNCNvNvCshafeh9ym3qt_14lzscr_analyzer27analyze_unused_let_bindings10binds_name0B5_
FNDA:0,_RNCNvNvCshafeh9ym3qt_14lzscr_analyzer27analyze_unused_let_bindings10binds_names0_0B5_
FNDA:0,_RNCNvNvCshafeh9ym3qt_14lzscr_analyzer27analyze_unused_let_bindings10binds_names_0B5_
FNDA:0,_RNCNvNvCshafeh9ym3qt_14lzscr_analyzer27analyze_unused_let_bindings7used_in0B5_
FNDA:0,_RNCNvNvCshafeh9ym3qt_14lzscr_analyzer27analyze_unused_let_bindings7used_ins_0B5_
FNF:59
FNH:24
DA:22,0
DA:23,0
DA:24,0
DA:27,1
DA:29,0
DA:31,0
DA:32,0
DA:33,0
DA:34,0
DA:35,0
DA:36,0
DA:37,0
DA:38,0
DA:39,0
DA:40,0
DA:41,0
DA:42,0
DA:43,0
DA:44,0
DA:45,0
DA:46,0
DA:47,0
DA:48,0
DA:49,0
DA:50,0
DA:51,0
DA:52,0
DA:53,0
DA:54,0
DA:55,0
DA:56,0
DA:57,0
DA:58,0
DA:59,0
DA:60,0
DA:61,0
DA:63,0
DA:64,0
DA:65,0
DA:66,0
DA:67,0
DA:68,0
DA:70,0
DA:71,0
DA:72,0
DA:73,0
DA:74,0
DA:75,0
DA:76,0
DA:78,0
DA:79,0
DA:80,0
DA:81,0
DA:82,0
DA:83,0
DA:84,0
DA:86,0
DA:87,0
DA:88,0
DA:89,0
DA:90,0
DA:91,0
DA:92,0
DA:93,0
DA:94,0
DA:95,0
DA:97,0
DA:98,11
DA:100,11
DA:101,33
DA:102,33
DA:103,33
DA:104,0
DA:105,0
DA:106,0
DA:107,14
DA:108,14
DA:109,14
DA:110,14
DA:111,0
DA:112,0
DA:113,0
DA:114,0
DA:115,0
DA:116,0
DA:117,0
DA:118,0
DA:119,0
DA:120,0
DA:121,0
DA:122,0
DA:123,8
DA:124,8
DA:125,8
DA:126,8
DA:127,0
DA:128,0
DA:129,0
DA:130,0
DA:131,0
DA:132,0
DA:133,0
DA:134,0
DA:135,0
DA:136,0
DA:137,0
DA:138,0
DA:139,0
DA:140,0
DA:141,0
DA:142,0
DA:143,0
DA:144,0
DA:145,0
DA:146,0
DA:147,0
DA:148,0
DA:149,0
DA:150,0
DA:151,0
DA:152,0
DA:153,0
DA:154,0
DA:155,0
DA:156,0
DA:157,0
DA:158,0
DA:159,0
DA:160,0
DA:161,0
DA:162,11
DA:163,11
DA:164,11
DA:165,11
DA:166,11
DA:167,0
DA:168,0
DA:169,0
DA:170,0
DA:171,0
DA:172,0
DA:173,0
DA:174,0
DA:175,0
DA:176,0
DA:178,0
DA:179,0
DA:180,0
DA:181,0
DA:182,0
DA:183,0
DA:184,0
DA:185,0
DA:188,33
DA:189,11
DA:190,11
DA:191,11
DA:192,3
DA:194,3
DA:195,0
DA:196,0
DA:197,0
DA:198,0
DA:199,0
DA:200,0
DA:201,0
DA:202,0
DA:203,0
DA:204,0
DA:205,0
DA:206,0
DA:207,0
DA:208,0
DA:209,3
DA:210,0
DA:211,0
DA:212,0
DA:214,0
DA:216,3
DA:227,11
DA:228,11
DA:229,11
DA:231,11
DA:233,11
DA:234,11
DA:235,11
DA:236,5
DA:238,3
DA:239,3
DA:240,3
DA:241,3
DA:242,5
DA:244,5
DA:245,0
DA:246,0
DA:247,5
DA:248,6
DA:250,11
DA:251,0
DA:252,11
DA:253,11
DA:254,0
DA:255,0
DA:256,0
DA:257,0
DA:258,0
DA:259,0
DA:260,0
DA:261,0
DA:262,0
DA:263,0
DA:264,0
DA:265,5
DA:266,5
DA:267,5
DA:268,5
DA:269,0
DA:270,0
DA:271,0
DA:272,0
DA:273,0
DA:275,0
DA:276,0
DA:277,0
DA:278,0
DA:279,0
DA:281,6
DA:283,11
DA:285,1
DA:286,1
DA:287,1
DA:288,1
DA:289,3
DA:290,3
DA:291,2
DA:293,1
DA:295,3
DA:296,1
DA:298,1
DA:299,1
DA:300,1
DA:301,1
DA:302,1
DA:334,0
DA:336,0
DA:337,0
DA:338,0
DA:339,0
DA:340,0
DA:341,0
DA:342,0
DA:343,0
DA:345,0
DA:357,0
DA:358,0
DA:359,0
DA:360,0
DA:361,0
DA:362,0
DA:363,0
DA:364,0
DA:365,0
DA:366,0
DA:367,0
DA:368,0
DA:369,0
DA:370,0
DA:371,0
DA:372,0
DA:373,0
DA:374,0
DA:375,0
DA:377,0
DA:378,0
DA:379,0
DA:380,0
DA:381,0
DA:382,0
DA:383,0
DA:384,0
DA:385,0
DA:386,0
DA:387,0
DA:388,0
DA:389,0
DA:390,0
DA:391,0
DA:392,0
DA:393,0
DA:394,0
DA:395,0
DA:396,0
DA:397,0
DA:398,0
DA:399,0
DA:400,0
DA:401,0
DA:402,0
DA:403,0
DA:404,0
DA:405,0
DA:406,0
DA:407,0
DA:408,0
DA:409,0
DA:410,0
DA:411,0
DA:413,0
DA:414,0
DA:415,0
DA:416,0
DA:418,0
DA:419,0
DA:420,0
DA:421,0
DA:422,0
DA:424,0
DA:425,0
DA:426,0
DA:427,0
DA:428,0
DA:429,0
DA:430,0
DA:431,0
DA:432,0
DA:439,0
DA:440,0
DA:441,0
DA:442,0
DA:443,0
DA:444,0
DA:445,0
DA:446,0
DA:448,0
DA:450,0
DA:451,0
DA:459,0
DA:460,0
DA:461,0
DA:462,0
DA:463,0
DA:464,0
DA:465,0
DA:466,0
DA:467,0
DA:468,0
DA:469,0
DA:471,0
DA:472,0
DA:473,0
DA:474,0
DA:476,0
DA:477,0
DA:478,0
DA:479,0
DA:481,0
DA:482,0
DA:483,0
DA:484,0
DA:485,0
DA:486,0
DA:487,0
DA:488,0
DA:490,0
DA:491,0
DA:492,0
DA:493,0
DA:494,0
DA:495,0
DA:497,0
DA:498,0
DA:499,0
DA:500,0
DA:501,0
DA:503,0
DA:504,0
DA:505,0
DA:506,0
DA:507,0
DA:508,0
DA:509,0
DA:510,0
DA:511,0
DA:512,0
DA:513,0
DA:514,0
DA:515,0
DA:516,0
DA:517,0
DA:518,0
DA:519,0
DA:520,0
DA:521,0
DA:522,0
DA:523,0
DA:525,0
DA:526,0
DA:527,0
DA:528,0
DA:530,0
DA:531,0
DA:532,0
DA:540,0
DA:541,0
DA:542,0
DA:543,0
DA:544,0
DA:545,0
DA:546,0
DA:547,0
DA:548,0
DA:549,0
DA:550,0
DA:552,0
DA:553,0
DA:554,0
DA:555,0
DA:557,0
DA:558,0
DA:559,0
DA:560,0
DA:562,0
DA:563,0
DA:564,0
DA:565,0
DA:567,0
DA:568,0
DA:569,0
DA:570,0
DA:571,0
DA:572,0
DA:573,0
DA:574,0
DA:576,0
DA:577,0
DA:578,0
DA:579,0
DA:580,0
DA:581,0
DA:583,0
DA:584,0
DA:585,0
DA:586,0
DA:587,0
DA:589,0
DA:590,0
DA:591,0
DA:592,0
DA:593,0
DA:595,1
DA:596,1
DA:597,5
DA:598,5
DA:599,2
DA:600,3
DA:601,3
DA:609,0
DA:610,1
DA:611,1
DA:612,1
DA:613,2
DA:614,0
DA:615,0
DA:616,0
DA:617,0
DA:619,0
DA:620,0
DA:621,0
DA:622,0
DA:624,0
DA:625,0
DA:626,0
DA:627,0
DA:629,0
DA:630,0
DA:631,0
DA:632,0
DA:634,0
DA:635,0
DA:636,0
DA:637,0
DA:638,0
DA:639,0
DA:640,0
DA:641,0
DA:643,3
DA:644,2
DA:645,2
DA:646,2
DA:647,2
DA:648,1
DA:649,1
DA:650,1
DA:652,1
DA:653,2
DA:654,2
DA:655,2
DA:656,2
DA:657,2
DA:658,2
DA:659,2
DA:661,1
DA:662,1
DA:663,1
DA:664,1
DA:665,0
DA:666,0
DA:667,0
DA:675,0
DA:676,0
DA:677,0
DA:678,0
DA:679,0
DA:680,0
DA:681,0
DA:682,0
DA:683,0
DA:685,0
DA:686,0
DA:687,0
DA:688,0
DA:690,0
DA:691,0
DA:692,0
DA:693,0
DA:695,0
DA:696,0
DA:697,0
DA:698,0
DA:699,0
DA:700,0
DA:701,0
DA:702,0
DA:704,0
DA:705,0
DA:706,0
DA:707,0
DA:708,0
DA:709,0
DA:710,0
DA:711,0
DA:712,0
DA:713,0
DA:715,0
DA:716,0
DA:717,0
DA:718,0
DA:719,0
DA:720,0
DA:721,0
DA:722,0
DA:723,0
DA:724,0
DA:725,0
DA:727,0
DA:728,0
DA:729,0
DA:730,0
DA:732,0
DA:733,0
DA:734,0
DA:735,0
DA:736,0
DA:737,0
DA:738,0
DA:739,0
DA:740,0
DA:741,0
DA:742,0
DA:743,0
DA:744,2
DA:746,5
DA:747,1
DA:748,1
DA:749,1
DA:750,1
DA:752,1
DA:753,1
DA:754,1
DA:755,1
DA:756,0
DA:757,0
DA:758,0
DA:760,0
DA:761,0
DA:762,0
DA:763,0
DA:764,0
DA:765,0
DA:766,0
DA:767,0
DA:768,0
DA:769,1
DA:771,1
DA:772,0
DA:773,0
DA:781,0
DA:782,0
DA:783,0
DA:784,0
DA:785,0
DA:786,0
DA:787,0
DA:788,0
DA:789,0
DA:791,0
DA:792,2
DA:793,2
DA:794,1
DA:796,2
DA:797,2
DA:805,0
DA:806,1
DA:807,1
DA:808,1
DA:809,1
DA:810,0
DA:811,0
DA:812,0
DA:813,0
DA:815,0
DA:816,0
DA:817,0
DA:818,0
DA:820,0
DA:821,0
DA:822,0
DA:823,0
DA:825,0
DA:826,0
DA:827,0
DA:828,0
DA:830,0
DA:831,0
DA:832,0
DA:833,0
DA:834,0
DA:835,0
DA:836,0
DA:837,0
DA:839,2
DA:840,1
DA:841,1
DA:842,1
DA:843,1
DA:844,1
DA:845,1
DA:847,1
DA:849,0
DA:850,0
DA:851,0
DA:852,0
DA:853,0
DA:854,0
DA:855,0
DA:856,0
DA:857,0
DA:859,0
DA:860,0
DA:861,0
DA:862,0
DA:863,0
DA:864,0
DA:865,0
DA:866,0
DA:867,0
DA:868,0
DA:869,0
DA:870,0
DA:871,0
DA:872,0
DA:873,0
DA:874,1
DA:876,2
DA:877,1
DA:878,1
DA:879,1
DA:881,0
DA:882,0
DA:884,0
DA:885,0
DA:886,0
DA:887,0
DA:888,0
DA:889,0
DA:891,0
DA:892,0
DA:893,0
DA:894,0
DA:895,0
DA:897,0
DA:899,0
DA:900,0
DA:901,0
DA:902,0
DA:904,0
DA:906,0
DA:907,0
DA:908,0
DA:909,0
DA:910,0
DA:911,0
DA:912,0
DA:913,0
DA:914,0
DA:915,0
DA:916,0
DA:917,0
DA:919,0
DA:920,0
DA:922,0
DA:924,0
DA:925,0
DA:926,0
DA:927,0
DA:928,0
DA:929,0
DA:930,0
DA:931,0
DA:933,0
DA:934,0
DA:935,0
DA:936,0
DA:938,0
DA:939,0
DA:940,0
DA:941,0
DA:943,0
DA:944,0
DA:945,0
DA:946,0
DA:947,0
DA:948,0
DA:949,0
DA:950,0
DA:951,0
DA:953,0
DA:955,0
DA:956,0
DA:957,0
DA:959,0
DA:960,0
DA:961,0
DA:962,0
DA:964,0
DA:965,0
DA:966,0
DA:967,0
DA:968,0
DA:969,0
DA:970,0
DA:971,0
DA:973,0
DA:974,0
DA:975,0
DA:976,0
DA:979,0
DA:980,0
DA:981,0
DA:982,0
DA:984,0
DA:985,0
DA:986,0
DA:987,0
DA:988,0
DA:989,0
DA:990,0
DA:991,0
DA:992,0
DA:993,0
DA:995,0
DA:996,0
DA:997,0
DA:998,0
DA:999,0
DA:1000,0
DA:1001,0
DA:1002,0
DA:1003,0
DA:1005,0
DA:1007,0
DA:1008,0
DA:1009,0
DA:1011,0
DA:1012,0
DA:1014,0
DA:1015,0
DA:1016,0
DA:1017,0
DA:1018,0
DA:1019,0
DA:1020,0
DA:1021,0
DA:1023,0
DA:1024,0
DA:1025,0
DA:1026,0
DA:1028,0
DA:1029,0
DA:1030,0
DA:1031,0
DA:1033,0
DA:1034,0
DA:1035,0
DA:1036,0
DA:1037,0
DA:1038,0
DA:1039,0
DA:1040,0
DA:1041,0
DA:1043,0
DA:1045,0
DA:1046,0
DA:1047,0
DA:1048,0
DA:1049,0
DA:1050,0
DA:1051,0
DA:1052,0
DA:1053,0
DA:1054,0
DA:1055,0
DA:1056,0
DA:1057,0
DA:1058,0
DA:1061,0
DA:1062,0
DA:1063,0
DA:1064,0
DA:1065,0
DA:1066,0
DA:1067,0
DA:1069,0
DA:1070,0
DA:1071,0
DA:1072,0
DA:1073,0
DA:1074,0
DA:1075,0
DA:1076,0
DA:1077,0
DA:1078,0
DA:1080,0
DA:1081,0
DA:1082,0
DA:1083,0
DA:1084,0
DA:1085,0
DA:1086,0
DA:1087,0
DA:1088,0
DA:1090,0
DA:1092,0
DA:1093,0
DA:1094,0
DA:1102,1
DA:1104,1
DA:1105,1
DA:1106,1
DA:1107,1
DA:1110,1
DA:1112,1
DA:1113,1
DA:1114,1
DA:1115,1
DA:1118,1
DA:1120,1
DA:1121,1
DA:1122,1
DA:1123,1
BRF:0
BRH:0
LF:892
LH:154
end_of_record
SF:/home/mako10k/lzscr/crates/lzscr-ast/src/lib.rs
FN:10,_RNvMNtCshUdd6sz6WUe_9lzscr_ast4spanNtB2_4Span3new
FN:80,_RNvMNtCshUdd6sz6WUe_9lzscr_ast3astNtB2_7Pattern3new
FN:122,_RNvMs_NtCshUdd6sz6WUe_9lzscr_ast3astNtB4_4Expr3new
FN:179,_RNvNtCshUdd6sz6WUe_9lzscr_ast6pretty10print_expr
FN:231,_RNvNtCshUdd6sz6WUe_9lzscr_ast6pretty10print_type
FN:130,_RNvNtCshUdd6sz6WUe_9lzscr_ast6pretty13print_pattern
FN:213,_RNCNvNtCshUdd6sz6WUe_9lzscr_ast6pretty10print_expr0B5_
FN:254,_RNCNvNtCshUdd6sz6WUe_9lzscr_ast6pretty10print_type0B5_
FN:163,_RNCNvNtCshUdd6sz6WUe_9lzscr_ast6pretty13print_pattern0B5_
FN:174,_RNCNvNtCshUdd6sz6WUe_9lzscr_ast6pretty13print_patterns_0B5_
FN:213,_RNCNvNtCs8NkpCsoPih1_9lzscr_ast6pretty10print_expr0B5_
FN:254,_RNCNvNtCs8NkpCsoPih1_9lzscr_ast6pretty10print_type0B5_
FN:163,_RNCNvNtCs8NkpCsoPih1_9lzscr_ast6pretty13print_pattern0B5_
FN:174,_RNCNvNtCs8NkpCsoPih1_9lzscr_ast6pretty13print_patterns_0B5_
FN:80,_RNvMNtCs8NkpCsoPih1_9lzscr_ast3astNtB2_7Pattern3new
FN:10,_RNvMNtCs8NkpCsoPih1_9lzscr_ast4spanNtB2_4Span3new
FN:122,_RNvMs_NtCs8NkpCsoPih1_9lzscr_ast3astNtB4_4Expr3new
FN:179,_RNvNtCs8NkpCsoPih1_9lzscr_ast6pretty10print_expr
FN:231,_RNvNtCs8NkpCsoPih1_9lzscr_ast6pretty10print_type
FN:130,_RNvNtCs8NkpCsoPih1_9lzscr_ast6pretty13print_pattern
FNDA:1422,_RNvMNtCshUdd6sz6WUe_9lzscr_ast4spanNtB2_4Span3new
FNDA:127,_RNvMNtCshUdd6sz6WUe_9lzscr_ast3astNtB2_7Pattern3new
FNDA:656,_RNvMs_NtCshUdd6sz6WUe_9lzscr_ast3astNtB4_4Expr3new
FNDA:0,_RNvNtCshUdd6sz6WUe_9lzscr_ast6pretty10print_expr
FNDA:0,_RNvNtCshUdd6sz6WUe_9lzscr_ast6pretty10print_type
FNDA:0,_RNvNtCshUdd6sz6WUe_9lzscr_ast6pretty13print_pattern
FNDA:0,_RNCNvNtCshUdd6sz6WUe_9lzscr_ast6pretty10print_expr0B5_
FNDA:0,_RNCNvNtCshUdd6sz6WUe_9lzscr_ast6pretty10print_type0B5_
FNDA:0,_RNCNvNtCshUdd6sz6WUe_9lzscr_ast6pretty13print_pattern0B5_
FNDA:0,_RNCNvNtCshUdd6sz6WUe_9lzscr_ast6pretty13print_patterns_0B5_
FNDA:0,_RNCNvNtCs8NkpCsoPih1_9lzscr_ast6pretty10print_expr0B5_
FNDA:0,_RNCNvNtCs8NkpCsoPih1_9lzscr_ast6pretty10print_type0B5_
FNDA:0,_RNCNvNtCs8NkpCsoPih1_9lzscr_ast6pretty13print_pattern0B5_
FNDA:0,_RNCNvNtCs8NkpCsoPih1_9lzscr_ast6pretty13print_patterns_0B5_
FNDA:0,_RNvMNtCs8NkpCsoPih1_9lzscr_ast3astNtB2_7Pattern3new
FNDA:0,_RNvMNtCs8NkpCsoPih1_9lzscr_ast4spanNtB2_4Span3new
FNDA:0,_RNvMs_NtCs8NkpCsoPih1_9lzscr_ast3astNtB4_4Expr3new
FNDA:0,_RNvNtCs8NkpCsoPih1_9lzscr_ast6pretty10print_expr
FNDA:0,_RNvNtCs8NkpCsoPih1_9lzscr_ast6pretty10print_type
FNDA:0,_RNvNtCs8NkpCsoPih1_9lzscr_ast6pretty13print_pattern
FNF:10
FNH:3
DA:10,1422
DA:11,1422
DA:12,1422
DA:80,127
DA:81,127
DA:82,127
DA:122,656
DA:123,656
DA:124,656
DA:130,0
DA:131,0
DA:132,0
DA:133,0
DA:134,0
DA:135,0
DA:136,0
DA:138,0
DA:139,0
DA:140,0
DA:142,0
DA:143,0
DA:145,0
DA:149,0
DA:150,0
DA:151,0
DA:152,0
DA:153,0
DA:154,0
DA:155,0
DA:156,0
DA:157,0
DA:159,0
DA:160,0
DA:161,0
DA:162,0
DA:163,0
DA:164,0
DA:165,0
DA:166,0
DA:168,0
DA:169,0
DA:170,0
DA:172,0
DA:173,0
DA:174,0
DA:175,0
DA:178,0
DA:179,0
DA:180,0
DA:181,0
DA:182,0
DA:183,0
DA:184,0
DA:185,0
DA:186,0
DA:187,0
DA:188,0
DA:189,0
DA:191,0
DA:192,0
DA:193,0
DA:194,0
DA:196,0
DA:197,0
DA:199,0
DA:200,0
DA:202,0
DA:203,0
DA:205,0
DA:206,0
DA:207,0
DA:209,0
DA:211,0
DA:212,0
DA:213,0
DA:214,0
DA:215,0
DA:216,0
DA:218,0
DA:219,0
DA:220,0
DA:222,0
DA:223,0
DA:225,0
DA:226,0
DA:229,0
DA:231,0
DA:232,0
DA:233,0
DA:234,0
DA:235,0
DA:236,0
DA:237,0
DA:238,0
DA:239,0
DA:240,0
DA:241,0
DA:242,0
DA:244,0
DA:247,0
DA:248,0
DA:249,0
DA:251,0
DA:252,0
DA:253,0
DA:254,0
DA:255,0
DA:256,0
DA:257,0
DA:259,0
DA:260,0
DA:261,0
DA:262,0
DA:264,0
DA:268,0
BRF:0
BRH:0
LF:119
LH:9
end_of_record
SF:/home/mako10k/lzscr/crates/lzscr-cli/src/main.rs
FN:90,_RNCNvCsiwNxMI31jlh_9lzscr_cli17format_span_caret0B3_
FN:1122,_RNCNvCsiwNxMI31jlh_9lzscr_cli22resolve_module_content0B3_
FN:882,_RNCNvCsiwNxMI31jlh_9lzscr_cli23expand_requires_in_expr0B3_
FN:971,_RNCNvCsiwNxMI31jlh_9lzscr_cli25rebase_pattern_with_minus0B3_
FN:993,_RNCNvCsiwNxMI31jlh_9lzscr_cli25rebase_pattern_with_minuss0_0B3_
FN:974,_RNCNvCsiwNxMI31jlh_9lzscr_cli25rebase_pattern_with_minuss_0B3_
FN:923,_RNCNvCsiwNxMI31jlh_9lzscr_cli28rebase_expr_spans_with_minus0B3_
FN:925,_RNCNvCsiwNxMI31jlh_9lzscr_cli28rebase_expr_spans_with_minuss0_0B3_
FN:924,_RNCNvCsiwNxMI31jlh_9lzscr_cli28rebase_expr_spans_with_minuss_0B3_
FN:259,_RNCNvCsiwNxMI31jlh_9lzscr_cli4main0B3_
FN:591,_RNCNvCsiwNxMI31jlh_9lzscr_cli4mains0_0B3_
FN:591,_RNCNvCsiwNxMI31jlh_9lzscr_cli4mains_0B3_
FN:736,_RNCNvNvCsiwNxMI31jlh_9lzscr_cli4main13val_to_string0B5_
FN:740,_RNCNvNvCsiwNxMI31jlh_9lzscr_cli4main13val_to_strings0_0B5_
FN:751,_RNCNvNvCsiwNxMI31jlh_9lzscr_cli4main13val_to_strings1_0B5_
FN:759,_RNCNvNvCsiwNxMI31jlh_9lzscr_cli4main13val_to_strings2_0B5_
FN:763,_RNCNvNvCsiwNxMI31jlh_9lzscr_cli4main13val_to_strings3_0B5_
FN:768,_RNCNvNvCsiwNxMI31jlh_9lzscr_cli4main13val_to_strings_0B5_
FN:383,_RNCNvNvCsiwNxMI31jlh_9lzscr_cli4main5count0B5_
FN:1086,_RNvCsiwNxMI31jlh_9lzscr_cli14node_kind_name
FN:70,_RNvCsiwNxMI31jlh_9lzscr_cli17format_span_caret
FN:1050,_RNvCsiwNxMI31jlh_9lzscr_cli18match_builtin_call
FN:1010,_RNvCsiwNxMI31jlh_9lzscr_cli18match_require_call
FN:108,_RNvCsiwNxMI31jlh_9lzscr_cli21parse_ctor_arity_spec
FN:1109,_RNvCsiwNxMI31jlh_9lzscr_cli22resolve_module_content
FN:803,_RNvCsiwNxMI31jlh_9lzscr_cli23expand_requires_in_expr
FN:785,_RNvCsiwNxMI31jlh_9lzscr_cli25build_module_search_paths
FN:965,_RNvCsiwNxMI31jlh_9lzscr_cli25rebase_pattern_with_minus
FN:921,_RNvCsiwNxMI31jlh_9lzscr_cli28rebase_expr_spans_with_minus
FN:237,_RNvCsiwNxMI31jlh_9lzscr_cli4main
FN:39,_RNvMCsiwNxMI31jlh_9lzscr_cliNtB2_14SourceRegistry15register_module
FN:49,_RNvMCsiwNxMI31jlh_9lzscr_cliNtB2_14SourceRegistry17format_span_block
FN:31,_RNvMCsiwNxMI31jlh_9lzscr_cliNtB2_14SourceRegistry3new
FN:1052,_RNvNvCsiwNxMI31jlh_9lzscr_cli18match_builtin_call13collect_apply
FN:1012,_RNvNvCsiwNxMI31jlh_9lzscr_cli18match_require_call13collect_apply
FN:718,_RNvNvCsiwNxMI31jlh_9lzscr_cli4main13val_to_string
FN:372,_RNvNvCsiwNxMI31jlh_9lzscr_cli4main5count
FN:719,_RNvNvNvCsiwNxMI31jlh_9lzscr_cli4main13val_to_string19char_literal_string
FN:1086,_RNvCsi05oqQgXwMJ_9lzscr_cli14node_kind_name
FN:70,_RNvCsi05oqQgXwMJ_9lzscr_cli17format_span_caret
FN:1050,_RNvCsi05oqQgXwMJ_9lzscr_cli18match_builtin_call
FN:1010,_RNvCsi05oqQgXwMJ_9lzscr_cli18match_require_call
FN:108,_RNvCsi05oqQgXwMJ_9lzscr_cli21parse_ctor_arity_spec
FN:1109,_RNvCsi05oqQgXwMJ_9lzscr_cli22resolve_module_content
FN:803,_RNvCsi05oqQgXwMJ_9lzscr_cli23expand_requires_in_expr
FN:785,_RNvCsi05oqQgXwMJ_9lzscr_cli25build_module_search_paths
FN:965,_RNvCsi05oqQgXwMJ_9lzscr_cli25rebase_pattern_with_minus
FN:921,_RNvCsi05oqQgXwMJ_9lzscr_cli28rebase_expr_spans_with_minus
FN:237,_RNvCsi05oqQgXwMJ_9lzscr_cli4main
FN:39,_RNvMCsi05oqQgXwMJ_9lzscr_cliNtB2_14SourceRegistry15register_module
FN:49,_RNvMCsi05oqQgXwMJ_9lzscr_cliNtB2_14SourceRegistry17format_span_block
FN:31,_RNvMCsi05oqQgXwMJ_9lzscr_cliNtB2_14SourceRegistry3new
FN:1052,_RNvNvCsi05oqQgXwMJ_9lzscr_cli18match_builtin_call13collect_apply
FN:1012,_RNvNvCsi05oqQgXwMJ_9lzscr_cli18match_require_call13collect_apply
FN:718,_RNvNvCsi05oqQgXwMJ_9lzscr_cli4main13val_to_string
FN:372,_RNvNvCsi05oqQgXwMJ_9lzscr_cli4main5count
FN:719,_RNvNvNvCsi05oqQgXwMJ_9lzscr_cli4main13val_to_string19char_literal_string
FN:90,_RNCNvCsi05oqQgXwMJ_9lzscr_cli17format_span_caret0B3_
FN:1122,_RNCNvCsi05oqQgXwMJ_9lzscr_cli22resolve_module_content0B3_
FN:882,_RNCNvCsi05oqQgXwMJ_9lzscr_cli23expand_requires_in_expr0B3_
FN:971,_RNCNvCsi05oqQgXwMJ_9lzscr_cli25rebase_pattern_with_minus0B3_
FN:993,_RNCNvCsi05oqQgXwMJ_9lzscr_cli25rebase_pattern_with_minuss0_0B3_
FN:974,_RNCNvCsi05oqQgXwMJ_9lzscr_cli25rebase_pattern_with_minuss_0B3_
FN:923,_RNCNvCsi05oqQgXwMJ_9lzscr_cli28rebase_expr_spans_with_minus0B3_
FN:925,_RNCNvCsi05oqQgXwMJ_9lzscr_cli28rebase_expr_spans_with_minuss0_0B3_
FN:924,_RNCNvCsi05oqQgXwMJ_9lzscr_cli28rebase_expr_spans_with_minuss_0B3_
FN:259,_RNCNvCsi05oqQgXwMJ_9lzscr_cli4main0B3_
FN:591,_RNCNvCsi05oqQgXwMJ_9lzscr_cli4mains0_0B3_
FN:591,_RNCNvCsi05oqQgXwMJ_9lzscr_cli4mains_0B3_
FN:736,_RNCNvNvCsi05oqQgXwMJ_9lzscr_cli4main13val_to_string0B5_
FN:740,_RNCNvNvCsi05oqQgXwMJ_9lzscr_cli4main13val_to_strings0_0B5_
FN:751,_RNCNvNvCsi05oqQgXwMJ_9lzscr_cli4main13val_to_strings1_0B5_
FN:759,_RNCNvNvCsi05oqQgXwMJ_9lzscr_cli4main13val_to_strings2_0B5_
FN:763,_RNCNvNvCsi05oqQgXwMJ_9lzscr_cli4main13val_to_strings3_0B5_
FN:768,_RNCNvNvCsi05oqQgXwMJ_9lzscr_cli4main13val_to_strings_0B5_
FN:383,_RNCNvNvCsi05oqQgXwMJ_9lzscr_cli4main5count0B5_
FNDA:0,_RNCNvCsiwNxMI31jlh_9lzscr_cli17format_span_caret0B3_
FNDA:0,_RNCNvCsiwNxMI31jlh_9lzscr_cli22resolve_module_content0B3_
FNDA:0,_RNCNvCsiwNxMI31jlh_9lzscr_cli23expand_requires_in_expr0B3_
FNDA:0,_RNCNvCsiwNxMI31jlh_9lzscr_cli25rebase_pattern_with_minus0B3_
FNDA:0,_RNCNvCsiwNxMI31jlh_9lzscr_cli25rebase_pattern_with_minuss0_0B3_
FNDA:0,_RNCNvCsiwNxMI31jlh_9lzscr_cli25rebase_pattern_with_minuss_0B3_
FNDA:0,_RNCNvCsiwNxMI31jlh_9lzscr_cli28rebase_expr_spans_with_minus0B3_
FNDA:0,_RNCNvCsiwNxMI31jlh_9lzscr_cli28rebase_expr_spans_with_minuss0_0B3_
FNDA:0,_RNCNvCsiwNxMI31jlh_9lzscr_cli28rebase_expr_spans_with_minuss_0B3_
FNDA:0,_RNCNvCsiwNxMI31jlh_9lzscr_cli4main0B3_
FNDA:0,_RNCNvCsiwNxMI31jlh_9lzscr_cli4mains0_0B3_
FNDA:0,_RNCNvCsiwNxMI31jlh_9lzscr_cli4mains_0B3_
FNDA:0,_RNCNvNvCsiwNxMI31jlh_9lzscr_cli4main13val_to_string0B5_
FNDA:0,_RNCNvNvCsiwNxMI31jlh_9lzscr_cli4main13val_to_strings0_0B5_
FNDA:0,_RNCNvNvCsiwNxMI31jlh_9lzscr_cli4main13val_to_strings1_0B5_
FNDA:0,_RNCNvNvCsiwNxMI31jlh_9lzscr_cli4main13val_to_strings2_0B5_
FNDA:0,_RNCNvNvCsiwNxMI31jlh_9lzscr_cli4main13val_to_strings3_0B5_
FNDA:0,_RNCNvNvCsiwNxMI31jlh_9lzscr_cli4main13val_to_strings_0B5_
FNDA:0,_RNCNvNvCsiwNxMI31jlh_9lzscr_cli4main5count0B5_
FNDA:0,_RNvCsiwNxMI31jlh_9lzscr_cli14node_kind_name
FNDA:0,_RNvCsiwNxMI31jlh_9lzscr_cli17format_span_caret
FNDA:0,_RNvCsiwNxMI31jlh_9lzscr_cli18match_builtin_call
FNDA:0,_RNvCsiwNxMI31jlh_9lzscr_cli18match_require_call
FNDA:0,_RNvCsiwNxMI31jlh_9lzscr_cli21parse_ctor_arity_spec
FNDA:0,_RNvCsiwNxMI31jlh_9lzscr_cli22resolve_module_content
FNDA:0,_RNvCsiwNxMI31jlh_9lzscr_cli23expand_requires_in_expr
FNDA:0,_RNvCsiwNxMI31jlh_9lzscr_cli25build_module_search_paths
FNDA:0,_RNvCsiwNxMI31jlh_9lzscr_cli25rebase_pattern_with_minus
FNDA:0,_RNvCsiwNxMI31jlh_9lzscr_cli28rebase_expr_spans_with_minus
FNDA:0,_RNvCsiwNxMI31jlh_9lzscr_cli4main
FNDA:0,_RNvMCsiwNxMI31jlh_9lzscr_cliNtB2_14SourceRegistry15register_module
FNDA:0,_RNvMCsiwNxMI31jlh_9lzscr_cliNtB2_14SourceRegistry17format_span_block
FNDA:0,_RNvMCsiwNxMI31jlh_9lzscr_cliNtB2_14SourceRegistry3new
FNDA:0,_RNvNvCsiwNxMI31jlh_9lzscr_cli18match_builtin_call13collect_apply
FNDA:0,_RNvNvCsiwNxMI31jlh_9lzscr_cli18match_require_call13collect_apply
FNDA:0,_RNvNvCsiwNxMI31jlh_9lzscr_cli4main13val_to_string
FNDA:0,_RNvNvCsiwNxMI31jlh_9lzscr_cli4main5count
FNDA:0,_RNvNvNvCsiwNxMI31jlh_9lzscr_cli4main13val_to_string19char_literal_string
FNDA:0,_RNvCsi05oqQgXwMJ_9lzscr_cli14node_kind_name
FNDA:1,_RNvCsi05oqQgXwMJ_9lzscr_cli17format_span_caret
FNDA:44,_RNvCsi05oqQgXwMJ_9lzscr_cli18match_builtin_call
FNDA:44,_RNvCsi05oqQgXwMJ_9lzscr_cli18match_require_call
FNDA:0,_RNvCsi05oqQgXwMJ_9lzscr_cli21parse_ctor_arity_spec
FNDA:0,_RNvCsi05oqQgXwMJ_9lzscr_cli22resolve_module_content
FNDA:44,_RNvCsi05oqQgXwMJ_9lzscr_cli23expand_requires_in_expr
FNDA:6,_RNvCsi05oqQgXwMJ_9lzscr_cli25build_module_search_paths
FNDA:0,_RNvCsi05oqQgXwMJ_9lzscr_cli25rebase_pattern_with_minus
FNDA:0,_RNvCsi05oqQgXwMJ_9lzscr_cli28rebase_expr_spans_with_minus
FNDA:6,_RNvCsi05oqQgXwMJ_9lzscr_cli4main
FNDA:0,_RNvMCsi05oqQgXwMJ_9lzscr_cliNtB2_14SourceRegistry15register_module
FNDA:1,_RNvMCsi05oqQgXwMJ_9lzscr_cliNtB2_14SourceRegistry17format_span_block
FNDA:6,_RNvMCsi05oqQgXwMJ_9lzscr_cliNtB2_14SourceRegistry3new
FNDA:44,_RNvNvCsi05oqQgXwMJ_9lzscr_cli18match_builtin_call13collect_apply
FNDA:44,_RNvNvCsi05oqQgXwMJ_9lzscr_cli18match_require_call13collect_apply
FNDA:3,_RNvNvCsi05oqQgXwMJ_9lzscr_cli4main13val_to_string
FNDA:44,_RNvNvCsi05oqQgXwMJ_9lzscr_cli4main5count
FNDA:0,_RNvNvNvCsi05oqQgXwMJ_9lzscr_cli4main13val_to_string19char_literal_string
FNDA:0,_RNCNvCsi05oqQgXwMJ_9lzscr_cli17format_span_caret0B3_
FNDA:0,_RNCNvCsi05oqQgXwMJ_9lzscr_cli22resolve_module_content0B3_
FNDA:0,_RNCNvCsi05oqQgXwMJ_9lzscr_cli23expand_requires_in_expr0B3_
FNDA:0,_RNCNvCsi05oqQgXwMJ_9lzscr_cli25rebase_pattern_with_minus0B3_
FNDA:0,_RNCNvCsi05oqQgXwMJ_9lzscr_cli25rebase_pattern_with_minuss0_0B3_
FNDA:0,_RNCNvCsi05oqQgXwMJ_9lzscr_cli25rebase_pattern_with_minuss_0B3_
FNDA:0,_RNCNvCsi05oqQgXwMJ_9lzscr_cli28rebase_expr_spans_with_minus0B3_
FNDA:0,_RNCNvCsi05oqQgXwMJ_9lzscr_cli28rebase_expr_spans_with_minuss0_0B3_
FNDA:0,_RNCNvCsi05oqQgXwMJ_9lzscr_cli28rebase_expr_spans_with_minuss_0B3_
FNDA:6,_RNCNvCsi05oqQgXwMJ_9lzscr_cli4main0B3_
FNDA:0,_RNCNvCsi05oqQgXwMJ_9lzscr_cli4mains0_0B3_
FNDA:0,_RNCNvCsi05oqQgXwMJ_9lzscr_cli4mains_0B3_
FNDA:0,_RNCNvNvCsi05oqQgXwMJ_9lzscr_cli4main13val_to_string0B5_
FNDA:0,_RNCNvNvCsi05oqQgXwMJ_9lzscr_cli4main13val_to_strings0_0B5_
FNDA:0,_RNCNvNvCsi05oqQgXwMJ_9lzscr_cli4main13val_to_strings1_0B5_
FNDA:0,_RNCNvNvCsi05oqQgXwMJ_9lzscr_cli4main13val_to_strings2_0B5_
FNDA:0,_RNCNvNvCsi05oqQgXwMJ_9lzscr_cli4main13val_to_strings3_0B5_
FNDA:0,_RNCNvNvCsi05oqQgXwMJ_9lzscr_cli4main13val_to_strings_0B5_
FNDA:1,_RNCNvNvCsi05oqQgXwMJ_9lzscr_cli4main5count0B5_
FNF:38
FNH:14
DA:31,6
DA:33,6
DA:34,6
DA:35,6
DA:36,6
DA:37,6
DA:39,0
DA:40,0
DA:42,0
DA:43,0
DA:44,0
DA:45,0
DA:46,0
DA:47,0
DA:49,1
DA:51,1
DA:52,1
DA:53,0
DA:54,0
DA:55,0
DA:56,0
DA:57,0
DA:58,0
DA:61,0
DA:62,0
DA:63,0
DA:64,0
DA:65,0
DA:67,1
DA:70,1
DA:72,1
DA:73,1
DA:74,12
DA:75,12
DA:76,0
DA:77,12
DA:80,1
DA:81,1
DA:82,1
DA:83,1
DA:84,1
DA:85,0
DA:88,1
DA:90,1
DA:91,1
DA:92,1
DA:93,1
DA:94,1
DA:95,0
DA:96,0
DA:97,1
DA:98,1
DA:99,11
DA:100,11
DA:101,11
DA:102,0
DA:103,0
DA:104,0
DA:105,1
DA:106,1
DA:108,0
DA:109,0
DA:110,0
DA:111,0
DA:112,0
DA:113,0
DA:114,0
DA:115,0
DA:116,0
DA:117,0
DA:118,0
DA:120,0
DA:121,0
DA:122,0
DA:123,0
DA:124,0
DA:125,0
DA:126,0
DA:127,0
DA:128,0
DA:130,0
DA:131,0
DA:134,0
DA:135,0
DA:237,6
DA:238,6
DA:240,6
DA:241,5
DA:242,1
DA:243,1
DA:244,1
DA:246,0
DA:249,1
DA:252,0
DA:253,0
DA:257,6
DA:259,6
DA:261,6
DA:262,6
DA:264,6
DA:265,6
DA:266,0
DA:267,0
DA:268,0
DA:269,0
DA:270,6
DA:271,6
DA:272,6
DA:273,6
DA:274,6
DA:275,6
DA:276,0
DA:280,6
DA:281,0
DA:282,0
DA:283,0
DA:284,0
DA:285,0
DA:286,0
DA:287,0
DA:289,0
DA:291,0
DA:292,0
DA:293,0
DA:294,0
DA:296,0
DA:297,0
DA:298,0
DA:301,6
DA:304,6
DA:305,6
DA:306,6
DA:307,6
DA:308,6
DA:309,0
DA:311,0
DA:312,0
DA:313,0
DA:315,0
DA:316,0
DA:317,0
DA:318,0
DA:319,0
DA:320,0
DA:321,0
DA:322,0
DA:323,0
DA:324,0
DA:326,0
DA:328,0
DA:330,0
DA:331,0
DA:332,0
DA:333,0
DA:334,0
DA:335,0
DA:336,0
DA:339,0
DA:340,0
DA:341,0
DA:342,0
DA:343,0
DA:344,0
DA:345,0
DA:347,0
DA:348,0
DA:349,0
DA:351,0
DA:355,6
DA:356,6
DA:357,6
DA:358,6
DA:359,6
DA:360,6
DA:361,6
DA:362,6
DA:363,0
DA:364,0
DA:365,0
DA:368,6
DA:369,0
DA:370,6
DA:371,6
DA:372,44
DA:374,44
DA:376,25
DA:377,0
DA:378,0
DA:379,18
DA:380,0
DA:381,0
DA:382,1
DA:383,1
DA:385,0
DA:386,0
DA:387,0
DA:390,44
DA:391,6
DA:393,6
DA:394,0
DA:395,6
DA:397,6
DA:398,2
DA:399,2
DA:400,1
DA:401,1
DA:402,1
DA:403,1
DA:404,0
DA:405,0
DA:406,0
DA:407,0
DA:408,0
DA:411,0
DA:412,2
DA:413,4
DA:414,4
DA:426,0
DA:427,0
DA:428,0
DA:430,0
DA:431,0
DA:432,0
DA:435,0
DA:436,0
DA:437,0
DA:438,0
DA:439,0
DA:440,0
DA:441,0
DA:443,0
DA:444,0
DA:445,0
DA:446,0
DA:447,0
DA:448,0
DA:449,0
DA:450,0
DA:451,0
DA:453,0
DA:454,0
DA:455,0
DA:456,0
DA:457,0
DA:458,0
DA:459,0
DA:460,0
DA:461,0
DA:463,0
DA:464,0
DA:465,0
DA:466,0
DA:467,0
DA:468,0
DA:469,0
DA:470,0
DA:471,0
DA:473,0
DA:474,0
DA:475,0
DA:476,0
DA:477,0
DA:478,0
DA:479,0
DA:480,0
DA:481,0
DA:483,0
DA:484,0
DA:485,0
DA:486,0
DA:487,0
DA:488,0
DA:489,0
DA:490,0
DA:491,0
DA:492,0
DA:493,0
DA:494,0
DA:495,0
DA:496,0
DA:497,0
DA:498,0
DA:499,0
DA:500,0
DA:501,0
DA:503,0
DA:504,0
DA:505,0
DA:506,0
DA:507,0
DA:508,0
DA:509,0
DA:510,0
DA:511,0
DA:512,0
DA:513,0
DA:514,0
DA:515,0
DA:516,0
DA:517,0
DA:518,0
DA:519,0
DA:520,0
DA:521,0
DA:522,0
DA:524,0
DA:525,0
DA:526,0
DA:527,0
DA:528,0
DA:529,0
DA:530,0
DA:531,0
DA:532,0
DA:533,0
DA:534,0
DA:535,0
DA:536,0
DA:537,0
DA:538,0
DA:539,0
DA:540,0
DA:541,0
DA:542,0
DA:543,0
DA:544,0
DA:545,0
DA:546,0
DA:547,0
DA:548,0
DA:549,0
DA:550,0
DA:551,0
DA:552,0
DA:553,0
DA:554,0
DA:555,0
DA:556,0
DA:557,0
DA:558,0
DA:559,0
DA:560,0
DA:561,0
DA:562,0
DA:563,0
DA:564,0
DA:565,0
DA:566,0
DA:567,0
DA:568,0
DA:569,0
DA:570,0
DA:571,0
DA:572,0
DA:573,0
DA:574,0
DA:575,0
DA:576,0
DA:577,0
DA:578,0
DA:579,0
DA:580,0
DA:582,0
DA:583,4
DA:585,4
DA:586,4
DA:588,0
DA:589,0
DA:590,0
DA:591,0
DA:593,0
DA:594,0
DA:595,0
DA:596,0
DA:597,0
DA:598,0
DA:599,0
DA:600,0
DA:601,0
DA:602,0
DA:605,0
DA:606,0
DA:607,0
DA:608,0
DA:609,0
DA:610,0
DA:611,0
DA:612,0
DA:613,0
DA:614,0
DA:619,0
DA:620,0
DA:621,0
DA:623,0
DA:624,0
DA:625,0
DA:626,0
DA:627,0
DA:628,0
DA:629,0
DA:631,0
DA:633,0
DA:634,0
DA:635,0
DA:636,0
DA:637,0
DA:638,0
DA:639,0
DA:640,0
DA:641,0
DA:642,0
DA:643,0
DA:645,0
DA:649,4
DA:650,3
DA:651,3
DA:656,0
DA:657,3
DA:658,3
DA:659,3
DA:660,3
DA:662,1
DA:664,1
DA:665,0
DA:666,1
DA:667,1
DA:668,1
DA:669,1
DA:670,1
DA:671,1
DA:672,0
DA:673,0
DA:674,0
DA:676,1
DA:680,0
DA:681,3
DA:682,3
DA:683,0
DA:684,0
DA:685,0
DA:686,0
DA:687,0
DA:688,0
DA:689,0
DA:690,3
DA:691,3
DA:692,1
DA:693,2
DA:694,3
DA:695,3
DA:696,0
DA:698,0
DA:699,0
DA:700,0
DA:702,0
DA:703,0
DA:704,0
DA:705,0
DA:706,0
DA:707,0
DA:709,0
DA:711,0
DA:712,0
DA:713,0
DA:718,3
DA:719,0
DA:720,0
DA:721,0
DA:722,0
DA:723,0
DA:724,0
DA:725,3
DA:726,1
DA:727,2
DA:728,0
DA:729,0
DA:730,0
DA:731,0
DA:732,0
DA:733,0
DA:734,0
DA:735,0
DA:736,0
DA:737,0
DA:738,0
DA:739,0
DA:740,0
DA:741,0
DA:742,0
DA:744,0
DA:745,0
DA:747,0
DA:748,0
DA:750,0
DA:751,0
DA:752,0
DA:753,0
DA:757,0
DA:758,0
DA:759,0
DA:761,0
DA:762,0
DA:763,0
DA:765,0
DA:766,0
DA:767,0
DA:768,0
DA:769,0
DA:770,0
DA:771,0
DA:773,0
DA:775,3
DA:776,3
DA:777,3
DA:778,3
DA:780,5
DA:785,6
DA:786,6
DA:788,6
DA:790,6
DA:792,6
DA:793,0
DA:794,0
DA:795,0
DA:796,0
DA:797,0
DA:799,6
DA:800,6
DA:801,6
DA:803,44
DA:804,44
DA:805,44
DA:806,44
DA:807,44
DA:808,44
DA:810,44
DA:811,0
DA:812,44
DA:814,44
DA:815,0
DA:816,0
DA:817,0
DA:818,0
DA:819,0
DA:820,0
DA:822,0
DA:823,0
DA:824,0
DA:825,0
DA:826,0
DA:827,0
DA:828,0
DA:829,0
DA:831,0
DA:832,0
DA:833,0
DA:834,0
DA:836,0
DA:837,0
DA:839,0
DA:840,0
DA:841,0
DA:843,0
DA:848,0
DA:849,0
DA:850,0
DA:851,0
DA:852,0
DA:854,0
DA:855,0
DA:857,44
DA:861,44
DA:863,25
DA:865,0
DA:866,0
DA:867,0
DA:869,0
DA:870,0
DA:871,0
DA:873,18
DA:874,18
DA:875,18
DA:877,0
DA:878,0
DA:880,0
DA:881,0
DA:882,0
DA:883,0
DA:885,1
DA:886,1
DA:887,1
DA:888,1
DA:889,1
DA:892,1
DA:894,1
DA:895,1
DA:896,1
DA:899,0
DA:902,0
DA:903,0
DA:905,0
DA:906,0
DA:907,0
DA:909,0
DA:910,0
DA:911,0
DA:913,0
DA:914,0
DA:915,0
DA:918,44
DA:919,44
DA:921,0
DA:923,0
DA:924,0
DA:925,0
DA:926,0
DA:927,0
DA:928,0
DA:929,0
DA:930,0
DA:931,0
DA:932,0
DA:933,0
DA:934,0
DA:935,0
DA:936,0
DA:937,0
DA:939,0
DA:940,0
DA:941,0
DA:942,0
DA:943,0
DA:944,0
DA:945,0
DA:946,0
DA:947,0
DA:948,0
DA:950,0
DA:953,0
DA:954,0
DA:955,0
DA:956,0
DA:958,0
DA:959,0
DA:960,0
DA:961,0
DA:962,0
DA:963,0
DA:965,0
DA:967,0
DA:968,0
DA:969,0
DA:970,0
DA:971,0
DA:972,0
DA:973,0
DA:974,0
DA:976,0
DA:977,0
DA:978,0
DA:979,0
DA:980,0
DA:981,0
DA:982,0
DA:983,0
DA:984,0
DA:985,0
DA:986,0
DA:987,0
DA:989,0
DA:990,0
DA:991,0
DA:992,0
DA:993,0
DA:994,0
DA:995,0
DA:996,0
DA:997,0
DA:998,0
DA:999,0
DA:1000,0
DA:1001,0
DA:1003,0
DA:1004,0
DA:1005,0
DA:1006,0
DA:1007,0
DA:1008,0
DA:1010,44
DA:1012,44
DA:1014,71
DA:1015,27
DA:1016,27
DA:1017,27
DA:1018,27
DA:1019,44
DA:1022,44
DA:1023,44
DA:1024,44
DA:1025,28
DA:1026,28
DA:1027,0
DA:1028,0
DA:1029,0
DA:1030,0
DA:1031,0
DA:1032,0
DA:1033,0
DA:1034,0
DA:1035,0
DA:1036,0
DA:1037,0
DA:1038,0
DA:1039,0
DA:1040,0
DA:1044,0
DA:1046,44
DA:1048,44
DA:1050,44
DA:1052,44
DA:1054,71
DA:1055,27
DA:1056,27
DA:1057,27
DA:1058,27
DA:1059,44
DA:1062,44
DA:1063,44
DA:1064,44
DA:1065,28
DA:1066,28
DA:1067,0
DA:1068,0
DA:1069,0
DA:1070,0
DA:1071,0
DA:1072,0
DA:1073,0
DA:1074,0
DA:1075,0
DA:1076,0
DA:1079,0
DA:1080,0
DA:1082,44
DA:1084,44
DA:1086,0
DA:1087,0
DA:1088,0
DA:1089,0
DA:1090,0
DA:1091,0
DA:1092,0
DA:1093,0
DA:1094,0
DA:1095,0
DA:1096,0
DA:1097,0
DA:1098,0
DA:1099,0
DA:1100,0
DA:1101,0
DA:1102,0
DA:1103,0
DA:1104,0
DA:1105,0
DA:1107,0
DA:1109,0
DA:1110,0
DA:1111,0
DA:1112,0
DA:1113,0
DA:1114,0
DA:1115,0
DA:1116,0
DA:1117,0
DA:1119,0
DA:1120,0
DA:1122,0
DA:1124,0
BRF:0
BRH:0
LF:798
LH:194
end_of_record
SF:/home/mako10k/lzscr/crates/lzscr-coreir/src/lib.rs
FN:254,_RNvCsgs0wQZRdouW_12lzscr_coreir10print_term
FN:323,_RNvCsgs0wQZRdouW_12lzscr_coreir12eval_builtin
FN:351,_RNvCsgs0wQZRdouW_12lzscr_coreir13builtin_arity
FN:443,_RNvCsgs0wQZRdouW_12lzscr_coreir14print_ir_value
FN:389,_RNvCsgs0wQZRdouW_12lzscr_coreir18eval_term_with_env
FN:55,_RNvCsgs0wQZRdouW_12lzscr_coreir18lower_expr_to_core
FN:313,_RNvCsgs0wQZRdouW_12lzscr_coreir19is_simple_var_param
FN:359,_RNvCsgs0wQZRdouW_12lzscr_coreir8eval_app
FN:438,_RNvCsgs0wQZRdouW_12lzscr_coreir9eval_term
FN:45,_RNvMCsgs0wQZRdouW_12lzscr_coreirNtB2_4Term3new
FN:99,_RNvNvCsgs0wQZRdouW_12lzscr_coreir18lower_expr_to_core13print_pattern
FN:56,_RNvNvCsgs0wQZRdouW_12lzscr_coreir18lower_expr_to_core15print_type_expr
FN:279,_RNCNvCsgs0wQZRdouW_12lzscr_coreir10print_term0B3_
FN:157,_RNCNvCsgs0wQZRdouW_12lzscr_coreir18lower_expr_to_core0B3_
FN:316,_RNCNvCsgs0wQZRdouW_12lzscr_coreir19is_simple_var_param0B3_
FN:137,_RNCNvNvCsgs0wQZRdouW_12lzscr_coreir18lower_expr_to_core13print_pattern0B5_
FN:80,_RNCNvNvCsgs0wQZRdouW_12lzscr_coreir18lower_expr_to_core15print_type_expr0B5_
FN:254,_RNvCsdbhgRXBzRVi_12lzscr_coreir10print_term
FN:323,_RNvCsdbhgRXBzRVi_12lzscr_coreir12eval_builtin
FN:351,_RNvCsdbhgRXBzRVi_12lzscr_coreir13builtin_arity
FN:443,_RNvCsdbhgRXBzRVi_12lzscr_coreir14print_ir_value
FN:389,_RNvCsdbhgRXBzRVi_12lzscr_coreir18eval_term_with_env
FN:55,_RNvCsdbhgRXBzRVi_12lzscr_coreir18lower_expr_to_core
FN:313,_RNvCsdbhgRXBzRVi_12lzscr_coreir19is_simple_var_param
FN:359,_RNvCsdbhgRXBzRVi_12lzscr_coreir8eval_app
FN:438,_RNvCsdbhgRXBzRVi_12lzscr_coreir9eval_term
FN:45,_RNvMCsdbhgRXBzRVi_12lzscr_coreirNtB2_4Term3new
FN:99,_RNvNvCsdbhgRXBzRVi_12lzscr_coreir18lower_expr_to_core13print_pattern
FN:56,_RNvNvCsdbhgRXBzRVi_12lzscr_coreir18lower_expr_to_core15print_type_expr
FN:279,_RNCNvCsdbhgRXBzRVi_12lzscr_coreir10print_term0B3_
FN:157,_RNCNvCsdbhgRXBzRVi_12lzscr_coreir18lower_expr_to_core0B3_
FN:316,_RNCNvCsdbhgRXBzRVi_12lzscr_coreir19is_simple_var_param0B3_
FN:137,_RNCNvNvCsdbhgRXBzRVi_12lzscr_coreir18lower_expr_to_core13print_pattern0B5_
FN:80,_RNCNvNvCsdbhgRXBzRVi_12lzscr_coreir18lower_expr_to_core15print_type_expr0B5_
FN:471,_RNvNtCsdbhgRXBzRVi_12lzscr_coreir5tests5apply
FN:465,_RNvNtCsdbhgRXBzRVi_12lzscr_coreir5tests8int_expr
FN:468,_RNvNtCsdbhgRXBzRVi_12lzscr_coreir5tests8ref_expr
FN:549,_RNvNtCsdbhgRXBzRVi_12lzscr_coreir5testss_19lower_let_group_seq
FN:655,_RNvNtCsdbhgRXBzRVi_12lzscr_coreir5testss_20eval_ir_add_and_bind
FN:598,_RNvNtCsdbhgRXBzRVi_12lzscr_coreir5testss_20lower_chain_and_bind
FN:476,_RNvNtCsdbhgRXBzRVi_12lzscr_coreir5testss_22lower_seq_special_form
FN:495,_RNvNtCsdbhgRXBzRVi_12lzscr_coreir5testss_33lower_alt_lambda_to_alt_app_chain
FN:568,_RNvNtCsdbhgRXBzRVi_12lzscr_coreir5testss_48lower_let_group_with_typedecls_ignored_in_coreir
FNDA:7,_RNvCsgs0wQZRdouW_12lzscr_coreir10print_term
FNDA:0,_RNvCsgs0wQZRdouW_12lzscr_coreir12eval_builtin
FNDA:0,_RNvCsgs0wQZRdouW_12lzscr_coreir13builtin_arity
FNDA:0,_RNvCsgs0wQZRdouW_12lzscr_coreir14print_ir_value
FNDA:0,_RNvCsgs0wQZRdouW_12lzscr_coreir18eval_term_with_env
FNDA:14,_RNvCsgs0wQZRdouW_12lzscr_coreir18lower_expr_to_core
FNDA:0,_RNvCsgs0wQZRdouW_12lzscr_coreir19is_simple_var_param
FNDA:0,_RNvCsgs0wQZRdouW_12lzscr_coreir8eval_app
FNDA:0,_RNvCsgs0wQZRdouW_12lzscr_coreir9eval_term
FNDA:14,_RNvMCsgs0wQZRdouW_12lzscr_coreirNtB2_4Term3new
FNDA:0,_RNvNvCsgs0wQZRdouW_12lzscr_coreir18lower_expr_to_core13print_pattern
FNDA:0,_RNvNvCsgs0wQZRdouW_12lzscr_coreir18lower_expr_to_core15print_type_expr
FNDA:0,_RNCNvCsgs0wQZRdouW_12lzscr_coreir10print_term0B3_
FNDA:0,_RNCNvCsgs0wQZRdouW_12lzscr_coreir18lower_expr_to_core0B3_
FNDA:0,_RNCNvCsgs0wQZRdouW_12lzscr_coreir19is_simple_var_param0B3_
FNDA:0,_RNCNvNvCsgs0wQZRdouW_12lzscr_coreir18lower_expr_to_core13print_pattern0B5_
FNDA:0,_RNCNvNvCsgs0wQZRdouW_12lzscr_coreir18lower_expr_to_core15print_type_expr0B5_
FNDA:12,_RNvCsdbhgRXBzRVi_12lzscr_coreir10print_term
FNDA:1,_RNvCsdbhgRXBzRVi_12lzscr_coreir12eval_builtin
FNDA:3,_RNvCsdbhgRXBzRVi_12lzscr_coreir13builtin_arity
FNDA:2,_RNvCsdbhgRXBzRVi_12lzscr_coreir14print_ir_value
FNDA:9,_RNvCsdbhgRXBzRVi_12lzscr_coreir18eval_term_with_env
FNDA:33,_RNvCsdbhgRXBzRVi_12lzscr_coreir18lower_expr_to_core
FNDA:1,_RNvCsdbhgRXBzRVi_12lzscr_coreir19is_simple_var_param
FNDA:3,_RNvCsdbhgRXBzRVi_12lzscr_coreir8eval_app
FNDA:2,_RNvCsdbhgRXBzRVi_12lzscr_coreir9eval_term
FNDA:38,_RNvMCsdbhgRXBzRVi_12lzscr_coreirNtB2_4Term3new
FNDA:6,_RNvNvCsdbhgRXBzRVi_12lzscr_coreir18lower_expr_to_core13print_pattern
FNDA:0,_RNvNvCsdbhgRXBzRVi_12lzscr_coreir18lower_expr_to_core15print_type_expr
FNDA:2,_RNCNvCsdbhgRXBzRVi_12lzscr_coreir10print_term0B3_
FNDA:2,_RNCNvCsdbhgRXBzRVi_12lzscr_coreir18lower_expr_to_core0B3_
FNDA:1,_RNCNvCsdbhgRXBzRVi_12lzscr_coreir19is_simple_var_param0B3_
FNDA:0,_RNCNvNvCsdbhgRXBzRVi_12lzscr_coreir18lower_expr_to_core13print_pattern0B5_
FNDA:0,_RNCNvNvCsdbhgRXBzRVi_12lzscr_coreir18lower_expr_to_core15print_type_expr0B5_
FNDA:4,_RNvNtCsdbhgRXBzRVi_12lzscr_coreir5tests5apply
FNDA:3,_RNvNtCsdbhgRXBzRVi_12lzscr_coreir5tests8int_expr
FNDA:2,_RNvNtCsdbhgRXBzRVi_12lzscr_coreir5tests8ref_expr
FNDA:1,_RNvNtCsdbhgRXBzRVi_12lzscr_coreir5testss_19lower_let_group_seq
FNDA:1,_RNvNtCsdbhgRXBzRVi_12lzscr_coreir5testss_20eval_ir_add_and_bind
FNDA:1,_RNvNtCsdbhgRXBzRVi_12lzscr_coreir5testss_20lower_chain_and_bind
FNDA:1,_RNvNtCsdbhgRXBzRVi_12lzscr_coreir5testss_22lower_seq_special_form
FNDA:1,_RNvNtCsdbhgRXBzRVi_12lzscr_coreir5testss_33lower_alt_lambda_to_alt_app_chain
FNDA:1,_RNvNtCsdbhgRXBzRVi_12lzscr_coreir5testss_48lower_let_group_with_typedecls_ignored_in_coreir
FNF:26
FNH:23
DA:45,52
DA:46,52
DA:47,52
DA:55,47
DA:56,0
DA:57,0
DA:58,0
DA:59,0
DA:60,0
DA:61,0
DA:62,0
DA:63,0
DA:64,0
DA:65,0
DA:66,0
DA:67,0
DA:69,0
DA:72,0
DA:73,0
DA:74,0
DA:75,0
DA:77,0
DA:78,0
DA:79,0
DA:80,0
DA:81,0
DA:82,0
DA:83,0
DA:85,0
DA:86,0
DA:87,0
DA:88,0
DA:90,0
DA:91,0
DA:93,0
DA:98,0
DA:99,6
DA:100,6
DA:101,0
DA:102,6
DA:103,0
DA:104,0
DA:105,0
DA:107,0
DA:108,0
DA:110,0
DA:111,0
DA:112,0
DA:113,0
DA:115,0
DA:116,0
DA:118,0
DA:122,0
DA:123,0
DA:124,0
DA:125,0
DA:126,0
DA:127,0
DA:128,0
DA:129,0
DA:130,0
DA:131,0
DA:133,0
DA:134,0
DA:135,0
DA:136,0
DA:137,0
DA:138,0
DA:139,0
DA:140,0
DA:142,0
DA:144,6
DA:145,47
DA:146,0
DA:147,0
DA:148,0
DA:149,16
DA:150,0
DA:151,0
DA:152,0
DA:153,10
DA:154,0
DA:155,2
DA:156,2
DA:157,2
DA:158,2
DA:160,0
DA:162,0
DA:163,0
DA:164,0
DA:165,0
DA:166,0
DA:167,0
DA:168,0
DA:169,0
DA:170,0
DA:171,0
DA:173,0
DA:175,0
DA:176,0
DA:178,1
DA:180,1
DA:181,1
DA:182,1
DA:183,1
DA:184,1
DA:185,1
DA:186,1
DA:187,1
DA:188,1
DA:189,1
DA:190,1
DA:191,1
DA:192,1
DA:194,0
DA:196,0
DA:197,0
DA:198,0
DA:199,0
DA:201,0
DA:202,0
DA:203,0
DA:204,0
DA:205,0
DA:207,4
DA:208,4
DA:209,4
DA:211,14
DA:213,14
DA:214,10
DA:215,10
DA:216,3
DA:217,3
DA:218,3
DA:219,3
DA:220,7
DA:221,0
DA:222,4
DA:224,11
DA:225,7
DA:226,7
DA:227,1
DA:228,1
DA:229,1
DA:230,1
DA:231,6
DA:232,0
DA:233,4
DA:235,10
DA:236,6
DA:237,6
DA:238,2
DA:239,2
DA:240,2
DA:241,2
DA:242,4
DA:243,0
DA:244,4
DA:245,8
DA:246,8
DA:247,8
DA:248,8
DA:250,0
DA:252,47
DA:254,19
DA:255,19
DA:256,0
DA:257,7
DA:258,0
DA:259,0
DA:260,0
DA:261,0
DA:262,0
DA:263,0
DA:264,0
DA:265,0
DA:267,4
DA:268,0
DA:269,1
DA:270,2
DA:271,1
DA:272,1
DA:273,1
DA:275,1
DA:276,2
DA:277,2
DA:278,2
DA:279,2
DA:280,2
DA:281,2
DA:282,2
DA:285,19
DA:313,1
DA:315,1
DA:316,1
DA:317,1
DA:318,0
DA:319,0
DA:320,0
DA:321,1
DA:323,1
DA:324,1
DA:325,1
DA:326,0
DA:327,0
DA:328,0
DA:329,0
DA:331,0
DA:332,0
DA:333,0
DA:334,0
DA:335,0
DA:336,0
DA:337,0
DA:338,0
DA:339,0
DA:340,0
DA:341,0
DA:342,0
DA:344,0
DA:345,0
DA:347,0
DA:349,1
DA:351,3
DA:352,3
DA:353,3
DA:354,0
DA:355,0
DA:357,3
DA:359,3
DA:360,3
DA:361,1
DA:362,1
DA:363,1
DA:365,2
DA:366,2
DA:367,2
DA:368,2
DA:369,1
DA:370,1
DA:371,1
DA:374,0
DA:375,0
DA:376,0
DA:377,0
DA:379,0
DA:382,0
DA:385,0
DA:387,3
DA:389,9
DA:390,9
DA:391,9
DA:392,9
DA:393,9
DA:394,0
DA:395,3
DA:396,0
DA:397,0
DA:398,0
DA:399,0
DA:400,2
DA:401,2
DA:402,1
DA:403,1
DA:405,1
DA:406,1
DA:407,0
DA:408,0
DA:410,0
DA:411,1
DA:412,1
DA:413,0
DA:415,1
DA:417,2
DA:418,2
DA:419,2
DA:420,2
DA:422,0
DA:423,0
DA:424,0
DA:426,1
DA:427,1
DA:428,1
DA:429,1
DA:433,0
DA:436,9
DA:438,2
DA:439,2
DA:440,2
DA:441,2
DA:443,2
DA:444,2
DA:445,0
DA:446,2
DA:447,0
DA:448,0
DA:449,0
DA:450,0
DA:451,0
DA:452,0
DA:453,0
DA:454,0
DA:456,0
DA:458,2
DA:465,3
DA:466,3
DA:467,3
DA:468,2
DA:469,2
DA:470,2
DA:471,4
DA:472,4
DA:473,4
DA:476,1
DA:478,1
DA:479,1
DA:480,1
DA:481,1
DA:482,1
DA:483,1
DA:484,1
DA:485,1
DA:486,1
DA:487,1
DA:488,1
DA:489,1
DA:490,0
DA:492,1
DA:495,1
DA:498,1
DA:499,1
DA:500,1
DA:501,1
DA:502,1
DA:503,1
DA:505,1
DA:506,1
DA:507,1
DA:508,1
DA:509,1
DA:510,1
DA:512,1
DA:513,1
DA:514,1
DA:516,1
DA:517,1
DA:518,1
DA:519,1
DA:521,1
DA:523,1
DA:524,1
DA:525,0
DA:528,1
DA:529,1
DA:530,1
DA:531,1
DA:532,0
DA:535,0
DA:538,0
DA:541,0
DA:544,0
DA:546,1
DA:549,1
DA:551,1
DA:552,1
DA:553,1
DA:554,1
DA:555,1
DA:556,1
DA:557,1
DA:558,1
DA:559,1
DA:560,1
DA:562,1
DA:563,1
DA:564,1
DA:565,1
DA:568,1
DA:571,1
DA:572,1
DA:573,1
DA:574,1
DA:575,1
DA:576,1
DA:577,1
DA:578,1
DA:579,1
DA:581,1
DA:582,1
DA:583,1
DA:584,1
DA:585,1
DA:586,1
DA:587,1
DA:588,1
DA:589,1
DA:590,1
DA:592,1
DA:593,1
DA:594,1
DA:595,1
DA:598,1
DA:601,1
DA:602,1
DA:603,1
DA:604,1
DA:605,1
DA:606,1
DA:607,1
DA:608,1
DA:609,1
DA:610,1
DA:612,1
DA:613,1
DA:614,1
DA:615,1
DA:616,1
DA:617,1
DA:618,1
DA:619,1
DA:620,1
DA:622,1
DA:623,1
DA:624,1
DA:625,1
DA:626,1
DA:627,1
DA:628,1
DA:629,1
DA:630,1
DA:632,1
DA:633,1
DA:634,1
DA:635,1
DA:636,1
DA:637,0
DA:639,1
DA:640,1
DA:641,1
DA:642,0
DA:644,0
DA:647,0
DA:649,1
DA:650,1
DA:651,1
DA:652,1
DA:655,1
DA:658,1
DA:659,1
DA:660,1
DA:661,1
DA:662,1
DA:663,1
DA:664,1
DA:665,1
DA:667,1
DA:668,1
DA:669,1
DA:672,1
DA:673,1
DA:674,1
DA:675,1
DA:676,1
DA:677,1
DA:678,1
DA:679,1
DA:681,1
DA:682,1
DA:683,1
DA:684,1
DA:685,1
DA:686,1
DA:687,1
DA:688,1
DA:689,1
DA:691,1
DA:692,1
DA:693,1
DA:694,1
BRF:0
BRH:0
LF:484
LH:306
end_of_record
SF:/home/mako10k/lzscr/crates/lzscr-format/src/lib.rs
FN:28,_RNCNvCsPcEQroRf2d_12lzscr_format13format_source0B3_
FN:44,_RNCNvCsPcEQroRf2d_12lzscr_format18format_file_source0B3_
FN:34,_RNCNvCsPcEQroRf2d_12lzscr_format26format_source_with_options0B3_
FN:59,_RNCNvCsPcEQroRf2d_12lzscr_format31format_file_source_with_options0B3_
FN:26,_RNvCsPcEQroRf2d_12lzscr_format13format_source
FN:42,_RNvCsPcEQroRf2d_12lzscr_format18format_file_source
FN:33,_RNvCsPcEQroRf2d_12lzscr_format26format_source_with_options
FN:54,_RNvCsPcEQroRf2d_12lzscr_format31format_file_source_with_options
FN:19,_RNvXCsPcEQroRf2d_12lzscr_formatNtB2_13FormatOptionsNtNtCs66KPHxksi63_4core7default7Default7default
FN:28,_RNCNvCs31mW4QLapHS_12lzscr_format13format_source0B3_
FN:73,_RNvNtCs31mW4QLapHS_12lzscr_format5testss_11formats_add
FN:44,_RNCNvCs31mW4QLapHS_12lzscr_format18format_file_source0B3_
FN:34,_RNCNvCs31mW4QLapHS_12lzscr_format26format_source_with_options0B3_
FN:59,_RNCNvCs31mW4QLapHS_12lzscr_format31format_file_source_with_options0B3_
FN:42,_RNvCs31mW4QLapHS_12lzscr_format18format_file_source
FN:33,_RNvCs31mW4QLapHS_12lzscr_format26format_source_with_options
FN:54,_RNvCs31mW4QLapHS_12lzscr_format31format_file_source_with_options
FN:19,_RNvXCs31mW4QLapHS_12lzscr_formatNtB2_13FormatOptionsNtNtCs66KPHxksi63_4core7default7Default7default
FN:26,_RNvCs31mW4QLapHS_12lzscr_format13format_source
FNDA:0,_RNCNvCsPcEQroRf2d_12lzscr_format13format_source0B3_
FNDA:0,_RNCNvCsPcEQroRf2d_12lzscr_format18format_file_source0B3_
FNDA:0,_RNCNvCsPcEQroRf2d_12lzscr_format26format_source_with_options0B3_
FNDA:0,_RNCNvCsPcEQroRf2d_12lzscr_format31format_file_source_with_options0B3_
FNDA:0,_RNvCsPcEQroRf2d_12lzscr_format13format_source
FNDA:0,_RNvCsPcEQroRf2d_12lzscr_format18format_file_source
FNDA:0,_RNvCsPcEQroRf2d_12lzscr_format26format_source_with_options
FNDA:0,_RNvCsPcEQroRf2d_12lzscr_format31format_file_source_with_options
FNDA:0,_RNvXCsPcEQroRf2d_12lzscr_formatNtB2_13FormatOptionsNtNtCs66KPHxksi63_4core7default7Default7default
FNDA:0,_RNCNvCs31mW4QLapHS_12lzscr_format13format_source0B3_
FNDA:1,_RNvNtCs31mW4QLapHS_12lzscr_format5testss_11formats_add
FNDA:0,_RNCNvCs31mW4QLapHS_12lzscr_format18format_file_source0B3_
FNDA:0,_RNCNvCs31mW4QLapHS_12lzscr_format26format_source_with_options0B3_
FNDA:0,_RNCNvCs31mW4QLapHS_12lzscr_format31format_file_source_with_options0B3_
FNDA:0,_RNvCs31mW4QLapHS_12lzscr_format18format_file_source
FNDA:0,_RNvCs31mW4QLapHS_12lzscr_format26format_source_with_options
FNDA:0,_RNvCs31mW4QLapHS_12lzscr_format31format_file_source_with_options
FNDA:0,_RNvXCs31mW4QLapHS_12lzscr_formatNtB2_13FormatOptionsNtNtCs66KPHxksi63_4core7default7Default7default
FNDA:1,_RNvCs31mW4QLapHS_12lzscr_format13format_source
FNF:10
FNH:2
DA:19,0
DA:20,0
DA:21,0
DA:26,1
DA:28,1
DA:29,1
DA:30,1
DA:33,0
DA:34,0
DA:35,0
DA:36,0
DA:37,0
DA:42,0
DA:43,0
DA:44,0
DA:46,0
DA:47,0
DA:48,0
DA:49,0
DA:50,0
DA:51,0
DA:54,0
DA:55,0
DA:56,0
DA:57,0
DA:58,0
DA:59,0
DA:60,0
DA:61,0
DA:62,0
DA:63,0
DA:64,0
DA:65,0
DA:66,0
DA:73,1
DA:74,1
DA:75,1
DA:77,1
DA:78,1
BRF:0
BRH:0
LF:43
LH:9
end_of_record
SF:/home/mako10k/lzscr/crates/lzscr-lexer/src/lib.rs
FN:152,_RNvCs2LeMch6PvLJ_11lzscr_lexer10parse_char
FN:133,_RNvCs2LeMch6PvLJ_11lzscr_lexer12parse_string
FN:192,_RNvCs2LeMch6PvLJ_11lzscr_lexer19parse_block_comment
FN:229,_RNvCs2LeMch6PvLJ_11lzscr_lexer3lex
FN:4,_RNvNvXs_Cs2LeMch6PvLJ_11lzscr_lexerNtB6_3TokNtCskXOVIAsYYPn_5logos5Logos3lex11goto118_at1B6_
FN:4,_RNvNvXs_Cs2LeMch6PvLJ_11lzscr_lexerNtB6_3TokNtCskXOVIAsYYPn_5logos5Logos3lex14goto62_ctx61_xB6_
FN:152,_RNvCslA6oAf4QloK_11lzscr_lexer10parse_char
FN:133,_RNvCslA6oAf4QloK_11lzscr_lexer12parse_string
FN:192,_RNvCslA6oAf4QloK_11lzscr_lexer19parse_block_comment
FN:229,_RNvCslA6oAf4QloK_11lzscr_lexer3lex
FN:4,_RNvNvXs_CslA6oAf4QloK_11lzscr_lexerNtB6_3TokNtCskXOVIAsYYPn_5logos5Logos3lex11goto118_at1B6_
FN:4,_RNvNvXs_CslA6oAf4QloK_11lzscr_lexerNtB6_3TokNtCskXOVIAsYYPn_5logos5Logos3lex14goto62_ctx61_xB6_
FNDA:6,_RNvCs2LeMch6PvLJ_11lzscr_lexer10parse_char
FNDA:24,_RNvCs2LeMch6PvLJ_11lzscr_lexer12parse_string
FNDA:0,_RNvCs2LeMch6PvLJ_11lzscr_lexer19parse_block_comment
FNDA:87,_RNvCs2LeMch6PvLJ_11lzscr_lexer3lex
FNDA:4,_RNvNvXs_Cs2LeMch6PvLJ_11lzscr_lexerNtB6_3TokNtCskXOVIAsYYPn_5logos5Logos3lex11goto118_at1B6_
FNDA:24,_RNvNvXs_Cs2LeMch6PvLJ_11lzscr_lexerNtB6_3TokNtCskXOVIAsYYPn_5logos5Logos3lex14goto62_ctx61_xB6_
FNDA:0,_RNvCslA6oAf4QloK_11lzscr_lexer10parse_char
FNDA:0,_RNvCslA6oAf4QloK_11lzscr_lexer12parse_string
FNDA:0,_RNvCslA6oAf4QloK_11lzscr_lexer19parse_block_comment
FNDA:0,_RNvCslA6oAf4QloK_11lzscr_lexer3lex
FNDA:0,_RNvNvXs_CslA6oAf4QloK_11lzscr_lexerNtB6_3TokNtCskXOVIAsYYPn_5logos5Logos3lex11goto118_at1B6_
FNDA:0,_RNvNvXs_CslA6oAf4QloK_11lzscr_lexerNtB6_3TokNtCskXOVIAsYYPn_5logos5Logos3lex14goto62_ctx61_xB6_
FNF:5
FNH:4
DA:4,28
DA:133,24
DA:134,24
DA:135,24
DA:136,24
DA:137,24
DA:138,48
DA:139,24
DA:140,0
DA:141,0
DA:142,0
DA:143,0
DA:145,24
DA:146,24
DA:147,24
DA:149,24
DA:150,24
DA:152,6
DA:153,6
DA:155,6
DA:156,0
DA:157,6
DA:158,6
DA:159,6
DA:160,6
DA:162,2
DA:163,0
DA:164,0
DA:165,2
DA:166,0
DA:167,0
DA:168,0
DA:171,0
DA:172,0
DA:173,0
DA:174,0
DA:175,0
DA:176,0
DA:177,0
DA:178,0
DA:179,0
DA:181,0
DA:182,0
DA:184,0
DA:187,4
DA:189,6
DA:190,6
DA:192,0
DA:194,0
DA:195,0
DA:196,0
DA:197,0
DA:198,0
DA:199,0
DA:200,0
DA:201,0
DA:202,0
DA:203,0
DA:204,0
DA:205,0
DA:206,0
DA:207,0
DA:208,0
DA:209,0
DA:210,0
DA:211,0
DA:212,0
DA:213,0
DA:216,0
DA:217,0
DA:218,0
DA:219,0
DA:220,0
DA:229,87
DA:230,87
DA:231,87
DA:232,936
DA:233,849
DA:234,849
DA:235,849
DA:236,849
DA:237,849
DA:238,849
DA:239,849
DA:240,849
DA:242,87
DA:243,87
BRF:0
BRH:0
LF:87
LH:39
end_of_record
SF:/home/mako10k/lzscr/crates/lzscr-parser/src/lib.rs
FN:13,_RNvCs9nG5uWxm0ao_12lzscr_parser10parse_expr
FN:699,_RNvNvCs9nG5uWxm0ao_12lzscr_parser10parse_expr10parse_atom
FN:429,_RNvNvCs9nG5uWxm0ao_12lzscr_parser10parse_expr12nest_lambdas
FN:1260,_RNvNvCs9nG5uWxm0ao_12lzscr_parser10parse_expr13parse_expr_bp
FN:321,_RNvNvCs9nG5uWxm0ao_12lzscr_parser10parse_expr13parse_pattern
FN:40,_RNvNvCs9nG5uWxm0ao_12lzscr_parser10parse_expr14parse_pat_atom
FN:400,_RNvNvCs9nG5uWxm0ao_12lzscr_parser10parse_expr15collect_binders
FN:439,_RNvNvCs9nG5uWxm0ao_12lzscr_parser10parse_expr15parse_type_expr
FN:583,_RNvNvCs9nG5uWxm0ao_12lzscr_parser10parse_expr19try_parse_type_decl
FN:359,_RNvNvCs9nG5uWxm0ao_12lzscr_parser10parse_expr25try_parse_lhs_param_chain
FN:28,_RNvNvCs9nG5uWxm0ao_12lzscr_parser10parse_expr4bump
FN:22,_RNvNvCs9nG5uWxm0ao_12lzscr_parser10parse_expr4peek
FN:707,_RNvNvNvCs9nG5uWxm0ao_12lzscr_parser10parse_expr10parse_atom10parse_type
FN:557,_RNvNvNvCs9nG5uWxm0ao_12lzscr_parser10parse_expr15parse_type_expr13parse_type_bp
FN:443,_RNvNvNvCs9nG5uWxm0ao_12lzscr_parser10parse_expr15parse_type_expr15parse_type_atom
FN:774,_RNvNvNvNvCs9nG5uWxm0ao_12lzscr_parser10parse_expr10parse_atom10parse_type13parse_type_bp
FN:709,_RNvNvNvNvCs9nG5uWxm0ao_12lzscr_parser10parse_expr10parse_atom10parse_type15parse_type_atom
FN:15,_RNCNvCs9nG5uWxm0ao_12lzscr_parser10parse_expr0B3_
FN:19,_RNCNvCs9nG5uWxm0ao_12lzscr_parser10parse_exprs_0B3_
FN:703,_RNCNvNvCs9nG5uWxm0ao_12lzscr_parser10parse_expr10parse_atom0B5_
FN:829,_RNCNvNvCs9nG5uWxm0ao_12lzscr_parser10parse_expr10parse_atoms0_0B5_
FN:842,_RNCNvNvCs9nG5uWxm0ao_12lzscr_parser10parse_expr10parse_atoms1_0B5_
FN:845,_RNCNvNvCs9nG5uWxm0ao_12lzscr_parser10parse_expr10parse_atoms2_0B5_
FN:857,_RNCNvNvCs9nG5uWxm0ao_12lzscr_parser10parse_expr10parse_atoms3_0B5_
FN:885,_RNCNvNvCs9nG5uWxm0ao_12lzscr_parser10parse_expr10parse_atoms4_0B5_
FN:918,_RNCNvNvCs9nG5uWxm0ao_12lzscr_parser10parse_expr10parse_atoms5_0B5_
FN:946,_RNCNvNvCs9nG5uWxm0ao_12lzscr_parser10parse_expr10parse_atoms6_0B5_
FN:997,_RNCNvNvCs9nG5uWxm0ao_12lzscr_parser10parse_expr10parse_atoms7_0B5_
FN:1011,_RNCNvNvCs9nG5uWxm0ao_12lzscr_parser10parse_expr10parse_atoms8_0B5_
FN:1050,_RNCNvNvCs9nG5uWxm0ao_12lzscr_parser10parse_expr10parse_atoms9_0B5_
FN:794,_RNCNvNvCs9nG5uWxm0ao_12lzscr_parser10parse_expr10parse_atoms_0B5_
FN:1055,_RNCNvNvCs9nG5uWxm0ao_12lzscr_parser10parse_expr10parse_atomsa_0B5_
FN:1069,_RNCNvNvCs9nG5uWxm0ao_12lzscr_parser10parse_expr10parse_atomsb_0B5_
FN:1101,_RNCNvNvCs9nG5uWxm0ao_12lzscr_parser10parse_expr10parse_atomsc_0B5_
FN:1106,_RNCNvNvCs9nG5uWxm0ao_12lzscr_parser10parse_expr10parse_atomsd_0B5_
FN:1119,_RNCNvNvCs9nG5uWxm0ao_12lzscr_parser10parse_expr10parse_atomse_0B5_
FN:1189,_RNCNvNvCs9nG5uWxm0ao_12lzscr_parser10parse_expr10parse_atomsf_0B5_
FN:1202,_RNCNvNvCs9nG5uWxm0ao_12lzscr_parser10parse_expr10parse_atomsg_0B5_
FN:1211,_RNCNvNvCs9nG5uWxm0ao_12lzscr_parser10parse_expr10parse_atomsh_0B5_
FN:1218,_RNCNvNvCs9nG5uWxm0ao_12lzscr_parser10parse_expr10parse_atomsi_0B5_
FN:45,_RNCNvNvCs9nG5uWxm0ao_12lzscr_parser10parse_expr14parse_pat_atom0B5_
FN:78,_RNCNvNvCs9nG5uWxm0ao_12lzscr_parser10parse_expr14parse_pat_atoms0_0B5_
FN:100,_RNCNvNvCs9nG5uWxm0ao_12lzscr_parser10parse_expr14parse_pat_atoms1_0B5_
FN:134,_RNCNvNvCs9nG5uWxm0ao_12lzscr_parser10parse_expr14parse_pat_atoms2_0B5_
FN:149,_RNCNvNvCs9nG5uWxm0ao_12lzscr_parser10parse_expr14parse_pat_atoms3_0B5_
FN:184,_RNCNvNvCs9nG5uWxm0ao_12lzscr_parser10parse_expr14parse_pat_atoms4_0B5_
FN:199,_RNCNvNvCs9nG5uWxm0ao_12lzscr_parser10parse_expr14parse_pat_atoms5_0B5_
FN:222,_RNCNvNvCs9nG5uWxm0ao_12lzscr_parser10parse_expr14parse_pat_atoms6_0B5_
FN:233,_RNCNvNvCs9nG5uWxm0ao_12lzscr_parser10parse_expr14parse_pat_atoms7_0B5_
FN:243,_RNCNvNvCs9nG5uWxm0ao_12lzscr_parser10parse_expr14parse_pat_atoms8_0B5_
FN:258,_RNCNvNvCs9nG5uWxm0ao_12lzscr_parser10parse_expr14parse_pat_atoms9_0B5_
FN:66,_RNCNvNvCs9nG5uWxm0ao_12lzscr_parser10parse_expr14parse_pat_atoms_0B5_
FN:689,_RNCNvNvCs9nG5uWxm0ao_12lzscr_parser10parse_expr19try_parse_type_decl0B5_
FN:447,_RNCNvNvNvCs9nG5uWxm0ao_12lzscr_parser10parse_expr15parse_type_expr15parse_type_atom0B7_
FN:506,_RNCNvNvNvCs9nG5uWxm0ao_12lzscr_parser10parse_expr15parse_type_expr15parse_type_atoms0_0B7_
FN:517,_RNCNvNvNvCs9nG5uWxm0ao_12lzscr_parser10parse_expr15parse_type_expr15parse_type_atoms1_0B7_
FN:525,_RNCNvNvNvCs9nG5uWxm0ao_12lzscr_parser10parse_expr15parse_type_expr15parse_type_atoms2_0B7_
FN:463,_RNCNvNvNvCs9nG5uWxm0ao_12lzscr_parser10parse_expr15parse_type_expr15parse_type_atoms_0B7_
FN:710,_RNCNvNvNvNvCs9nG5uWxm0ao_12lzscr_parser10parse_expr10parse_atom10parse_type15parse_type_atom0B9_
FN:755,_RNCNvNvNvNvCs9nG5uWxm0ao_12lzscr_parser10parse_expr10parse_atom10parse_type15parse_type_atoms0_0B9_
FN:757,_RNCNvNvNvNvCs9nG5uWxm0ao_12lzscr_parser10parse_expr10parse_atom10parse_type15parse_type_atoms1_0B9_
FN:761,_RNCNvNvNvNvCs9nG5uWxm0ao_12lzscr_parser10parse_expr10parse_atom10parse_type15parse_type_atoms2_0B9_
FN:728,_RNCNvNvNvNvCs9nG5uWxm0ao_12lzscr_parser10parse_expr10parse_atom10parse_type15parse_type_atoms_0B9_
FN:1508,_RNvNtCsbUhW39O1vkP_12lzscr_parser5testss_16cons_right_assoc
FN:1533,_RNvNtCsbUhW39O1vkP_12lzscr_parser5testss_17type_value_parses
FN:1498,_RNvNtCsbUhW39O1vkP_12lzscr_parser5testss_18list_literal_basic
FN:1488,_RNvNtCsbUhW39O1vkP_12lzscr_parser5testss_18list_literal_empty
FN:1582,_RNvNtCsbUhW39O1vkP_12lzscr_parser5testss_18pattern_cons_parse
FN:1641,_RNvNtCsbUhW39O1vkP_12lzscr_parser5testss_21let_group_parse_basic
FN:1606,_RNvNtCsbUhW39O1vkP_12lzscr_parser5testss_22alt_lambda_right_assoc
FN:1517,_RNvNtCsbUhW39O1vkP_12lzscr_parser5testss_22type_annotation_parses
FN:1549,_RNvNtCsbUhW39O1vkP_12lzscr_parser5testss_23pattern_list_vars_parse
FN:1628,_RNvNtCsbUhW39O1vkP_12lzscr_parser5testss_27alt_lambda_lower_than_arrow
FN:1599,_RNvNtCsbUhW39O1vkP_12lzscr_parser5testss_27alt_lambda_requires_lambdas
FN:1455,_RNvNtCsbUhW39O1vkP_12lzscr_parser5testss_27record_literal_ident_key_ok
FN:1614,_RNvNtCsbUhW39O1vkP_12lzscr_parser5testss_29char_literal_basic_and_escape
FN:1668,_RNvNtCsbUhW39O1vkP_12lzscr_parser5testss_30letgroup_with_leading_bindings
FN:1677,_RNvNtCsbUhW39O1vkP_12lzscr_parser5testss_31letgroup_with_trailing_bindings
FN:1567,_RNvNtCsbUhW39O1vkP_12lzscr_parser5testss_32pattern_list_bare_ident_rejected
FN:1462,_RNvNtCsbUhW39O1vkP_12lzscr_parser5testss_34record_literal_string_key_rejected
FN:1474,_RNvNtCsbUhW39O1vkP_12lzscr_parser5testss_34record_pattern_string_key_rejected
FN:1658,_RNvNtCsbUhW39O1vkP_12lzscr_parser5testss_45group_without_bindings_is_plain_group_or_unit
FN:13,_RNvCsbUhW39O1vkP_12lzscr_parser10parse_expr
FN:699,_RNvNvCsbUhW39O1vkP_12lzscr_parser10parse_expr10parse_atom
FN:429,_RNvNvCsbUhW39O1vkP_12lzscr_parser10parse_expr12nest_lambdas
FN:1260,_RNvNvCsbUhW39O1vkP_12lzscr_parser10parse_expr13parse_expr_bp
FN:321,_RNvNvCsbUhW39O1vkP_12lzscr_parser10parse_expr13parse_pattern
FN:40,_RNvNvCsbUhW39O1vkP_12lzscr_parser10parse_expr14parse_pat_atom
FN:400,_RNvNvCsbUhW39O1vkP_12lzscr_parser10parse_expr15collect_binders
FN:439,_RNvNvCsbUhW39O1vkP_12lzscr_parser10parse_expr15parse_type_expr
FN:583,_RNvNvCsbUhW39O1vkP_12lzscr_parser10parse_expr19try_parse_type_decl
FN:359,_RNvNvCsbUhW39O1vkP_12lzscr_parser10parse_expr25try_parse_lhs_param_chain
FN:28,_RNvNvCsbUhW39O1vkP_12lzscr_parser10parse_expr4bump
FN:22,_RNvNvCsbUhW39O1vkP_12lzscr_parser10parse_expr4peek
FN:707,_RNvNvNvCsbUhW39O1vkP_12lzscr_parser10parse_expr10parse_atom10parse_type
FN:557,_RNvNvNvCsbUhW39O1vkP_12lzscr_parser10parse_expr15parse_type_expr13parse_type_bp
FN:443,_RNvNvNvCsbUhW39O1vkP_12lzscr_parser10parse_expr15parse_type_expr15parse_type_atom
FN:774,_RNvNvNvNvCsbUhW39O1vkP_12lzscr_parser10parse_expr10parse_atom10parse_type13parse_type_bp
FN:709,_RNvNvNvNvCsbUhW39O1vkP_12lzscr_parser10parse_expr10parse_atom10parse_type15parse_type_atom
FN:15,_RNCNvCsbUhW39O1vkP_12lzscr_parser10parse_expr0B3_
FN:19,_RNCNvCsbUhW39O1vkP_12lzscr_parser10parse_exprs_0B3_
FN:703,_RNCNvNvCsbUhW39O1vkP_12lzscr_parser10parse_expr10parse_atom0B5_
FN:829,_RNCNvNvCsbUhW39O1vkP_12lzscr_parser10parse_expr10parse_atoms0_0B5_
FN:842,_RNCNvNvCsbUhW39O1vkP_12lzscr_parser10parse_expr10parse_atoms1_0B5_
FN:845,_RNCNvNvCsbUhW39O1vkP_12lzscr_parser10parse_expr10parse_atoms2_0B5_
FN:857,_RNCNvNvCsbUhW39O1vkP_12lzscr_parser10parse_expr10parse_atoms3_0B5_
FN:885,_RNCNvNvCsbUhW39O1vkP_12lzscr_parser10parse_expr10parse_atoms4_0B5_
FN:918,_RNCNvNvCsbUhW39O1vkP_12lzscr_parser10parse_expr10parse_atoms5_0B5_
FN:946,_RNCNvNvCsbUhW39O1vkP_12lzscr_parser10parse_expr10parse_atoms6_0B5_
FN:997,_RNCNvNvCsbUhW39O1vkP_12lzscr_parser10parse_expr10parse_atoms7_0B5_
FN:1011,_RNCNvNvCsbUhW39O1vkP_12lzscr_parser10parse_expr10parse_atoms8_0B5_
FN:1050,_RNCNvNvCsbUhW39O1vkP_12lzscr_parser10parse_expr10parse_atoms9_0B5_
FN:794,_RNCNvNvCsbUhW39O1vkP_12lzscr_parser10parse_expr10parse_atoms_0B5_
FN:1055,_RNCNvNvCsbUhW39O1vkP_12lzscr_parser10parse_expr10parse_atomsa_0B5_
FN:1069,_RNCNvNvCsbUhW39O1vkP_12lzscr_parser10parse_expr10parse_atomsb_0B5_
FN:1101,_RNCNvNvCsbUhW39O1vkP_12lzscr_parser10parse_expr10parse_atomsc_0B5_
FN:1106,_RNCNvNvCsbUhW39O1vkP_12lzscr_parser10parse_expr10parse_atomsd_0B5_
FN:1119,_RNCNvNvCsbUhW39O1vkP_12lzscr_parser10parse_expr10parse_atomse_0B5_
FN:1189,_RNCNvNvCsbUhW39O1vkP_12lzscr_parser10parse_expr10parse_atomsf_0B5_
FN:1202,_RNCNvNvCsbUhW39O1vkP_12lzscr_parser10parse_expr10parse_atomsg_0B5_
FN:1211,_RNCNvNvCsbUhW39O1vkP_12lzscr_parser10parse_expr10parse_atomsh_0B5_
FN:1218,_RNCNvNvCsbUhW39O1vkP_12lzscr_parser10parse_expr10parse_atomsi_0B5_
FN:45,_RNCNvNvCsbUhW39O1vkP_12lzscr_parser10parse_expr14parse_pat_atom0B5_
FN:78,_RNCNvNvCsbUhW39O1vkP_12lzscr_parser10parse_expr14parse_pat_atoms0_0B5_
FN:100,_RNCNvNvCsbUhW39O1vkP_12lzscr_parser10parse_expr14parse_pat_atoms1_0B5_
FN:134,_RNCNvNvCsbUhW39O1vkP_12lzscr_parser10parse_expr14parse_pat_atoms2_0B5_
FN:149,_RNCNvNvCsbUhW39O1vkP_12lzscr_parser10parse_expr14parse_pat_atoms3_0B5_
FN:184,_RNCNvNvCsbUhW39O1vkP_12lzscr_parser10parse_expr14parse_pat_atoms4_0B5_
FN:199,_RNCNvNvCsbUhW39O1vkP_12lzscr_parser10parse_expr14parse_pat_atoms5_0B5_
FN:222,_RNCNvNvCsbUhW39O1vkP_12lzscr_parser10parse_expr14parse_pat_atoms6_0B5_
FN:233,_RNCNvNvCsbUhW39O1vkP_12lzscr_parser10parse_expr14parse_pat_atoms7_0B5_
FN:243,_RNCNvNvCsbUhW39O1vkP_12lzscr_parser10parse_expr14parse_pat_atoms8_0B5_
FN:258,_RNCNvNvCsbUhW39O1vkP_12lzscr_parser10parse_expr14parse_pat_atoms9_0B5_
FN:66,_RNCNvNvCsbUhW39O1vkP_12lzscr_parser10parse_expr14parse_pat_atoms_0B5_
FN:689,_RNCNvNvCsbUhW39O1vkP_12lzscr_parser10parse_expr19try_parse_type_decl0B5_
FN:447,_RNCNvNvNvCsbUhW39O1vkP_12lzscr_parser10parse_expr15parse_type_expr15parse_type_atom0B7_
FN:506,_RNCNvNvNvCsbUhW39O1vkP_12lzscr_parser10parse_expr15parse_type_expr15parse_type_atoms0_0B7_
FN:517,_RNCNvNvNvCsbUhW39O1vkP_12lzscr_parser10parse_expr15parse_type_expr15parse_type_atoms1_0B7_
FN:525,_RNCNvNvNvCsbUhW39O1vkP_12lzscr_parser10parse_expr15parse_type_expr15parse_type_atoms2_0B7_
FN:463,_RNCNvNvNvCsbUhW39O1vkP_12lzscr_parser10parse_expr15parse_type_expr15parse_type_atoms_0B7_
FN:710,_RNCNvNvNvNvCsbUhW39O1vkP_12lzscr_parser10parse_expr10parse_atom10parse_type15parse_type_atom0B9_
FN:755,_RNCNvNvNvNvCsbUhW39O1vkP_12lzscr_parser10parse_expr10parse_atom10parse_type15parse_type_atoms0_0B9_
FN:757,_RNCNvNvNvNvCsbUhW39O1vkP_12lzscr_parser10parse_expr10parse_atom10parse_type15parse_type_atoms1_0B9_
FN:761,_RNCNvNvNvNvCsbUhW39O1vkP_12lzscr_parser10parse_expr10parse_atom10parse_type15parse_type_atoms2_0B9_
FN:728,_RNCNvNvNvNvCsbUhW39O1vkP_12lzscr_parser10parse_expr10parse_atom10parse_type15parse_type_atoms_0B9_
FNDA:23,_RNvCs9nG5uWxm0ao_12lzscr_parser10parse_expr
FNDA:255,_RNvNvCs9nG5uWxm0ao_12lzscr_parser10parse_expr10parse_atom
FNDA:22,_RNvNvCs9nG5uWxm0ao_12lzscr_parser10parse_expr12nest_lambdas
FNDA:146,_RNvNvCs9nG5uWxm0ao_12lzscr_parser10parse_expr13parse_expr_bp
FNDA:141,_RNvNvCs9nG5uWxm0ao_12lzscr_parser10parse_expr13parse_pattern
FNDA:149,_RNvNvCs9nG5uWxm0ao_12lzscr_parser10parse_expr14parse_pat_atom
FNDA:35,_RNvNvCs9nG5uWxm0ao_12lzscr_parser10parse_expr15collect_binders
FNDA:0,_RNvNvCs9nG5uWxm0ao_12lzscr_parser10parse_expr15parse_type_expr
FNDA:40,_RNvNvCs9nG5uWxm0ao_12lzscr_parser10parse_expr19try_parse_type_decl
FNDA:40,_RNvNvCs9nG5uWxm0ao_12lzscr_parser10parse_expr25try_parse_lhs_param_chain
FNDA:644,_RNvNvCs9nG5uWxm0ao_12lzscr_parser10parse_expr4bump
FNDA:470,_RNvNvCs9nG5uWxm0ao_12lzscr_parser10parse_expr4peek
FNDA:0,_RNvNvNvCs9nG5uWxm0ao_12lzscr_parser10parse_expr10parse_atom10parse_type
FNDA:0,_RNvNvNvCs9nG5uWxm0ao_12lzscr_parser10parse_expr15parse_type_expr13parse_type_bp
FNDA:0,_RNvNvNvCs9nG5uWxm0ao_12lzscr_parser10parse_expr15parse_type_expr15parse_type_atom
FNDA:0,_RNvNvNvNvCs9nG5uWxm0ao_12lzscr_parser10parse_expr10parse_atom10parse_type13parse_type_bp
FNDA:0,_RNvNvNvNvCs9nG5uWxm0ao_12lzscr_parser10parse_expr10parse_atom10parse_type15parse_type_atom
FNDA:0,_RNCNvCs9nG5uWxm0ao_12lzscr_parser10parse_expr0B3_
FNDA:261,_RNCNvCs9nG5uWxm0ao_12lzscr_parser10parse_exprs_0B3_
FNDA:0,_RNCNvNvCs9nG5uWxm0ao_12lzscr_parser10parse_expr10parse_atom0B5_
FNDA:0,_RNCNvNvCs9nG5uWxm0ao_12lzscr_parser10parse_expr10parse_atoms0_0B5_
FNDA:0,_RNCNvNvCs9nG5uWxm0ao_12lzscr_parser10parse_expr10parse_atoms1_0B5_
FNDA:0,_RNCNvNvCs9nG5uWxm0ao_12lzscr_parser10parse_expr10parse_atoms2_0B5_
FNDA:0,_RNCNvNvCs9nG5uWxm0ao_12lzscr_parser10parse_expr10parse_atoms3_0B5_
FNDA:0,_RNCNvNvCs9nG5uWxm0ao_12lzscr_parser10parse_expr10parse_atoms4_0B5_
FNDA:0,_RNCNvNvCs9nG5uWxm0ao_12lzscr_parser10parse_expr10parse_atoms5_0B5_
FNDA:0,_RNCNvNvCs9nG5uWxm0ao_12lzscr_parser10parse_expr10parse_atoms6_0B5_
FNDA:0,_RNCNvNvCs9nG5uWxm0ao_12lzscr_parser10parse_expr10parse_atoms7_0B5_
FNDA:2,_RNCNvNvCs9nG5uWxm0ao_12lzscr_parser10parse_expr10parse_atoms8_0B5_
FNDA:0,_RNCNvNvCs9nG5uWxm0ao_12lzscr_parser10parse_expr10parse_atoms9_0B5_
FNDA:0,_RNCNvNvCs9nG5uWxm0ao_12lzscr_parser10parse_expr10parse_atoms_0B5_
FNDA:0,_RNCNvNvCs9nG5uWxm0ao_12lzscr_parser10parse_expr10parse_atomsa_0B5_
FNDA:0,_RNCNvNvCs9nG5uWxm0ao_12lzscr_parser10parse_expr10parse_atomsb_0B5_
FNDA:0,_RNCNvNvCs9nG5uWxm0ao_12lzscr_parser10parse_expr10parse_atomsc_0B5_
FNDA:0,_RNCNvNvCs9nG5uWxm0ao_12lzscr_parser10parse_expr10parse_atomsd_0B5_
FNDA:0,_RNCNvNvCs9nG5uWxm0ao_12lzscr_parser10parse_expr10parse_atomse_0B5_
FNDA:0,_RNCNvNvCs9nG5uWxm0ao_12lzscr_parser10parse_expr10parse_atomsf_0B5_
FNDA:0,_RNCNvNvCs9nG5uWxm0ao_12lzscr_parser10parse_expr10parse_atomsg_0B5_
FNDA:0,_RNCNvNvCs9nG5uWxm0ao_12lzscr_parser10parse_expr10parse_atomsh_0B5_
FNDA:0,_RNCNvNvCs9nG5uWxm0ao_12lzscr_parser10parse_expr10parse_atomsi_0B5_
FNDA:0,_RNCNvNvCs9nG5uWxm0ao_12lzscr_parser10parse_expr14parse_pat_atom0B5_
FNDA:0,_RNCNvNvCs9nG5uWxm0ao_12lzscr_parser10parse_expr14parse_pat_atoms0_0B5_
FNDA:0,_RNCNvNvCs9nG5uWxm0ao_12lzscr_parser10parse_expr14parse_pat_atoms1_0B5_
FNDA:0,_RNCNvNvCs9nG5uWxm0ao_12lzscr_parser10parse_expr14parse_pat_atoms2_0B5_
FNDA:0,_RNCNvNvCs9nG5uWxm0ao_12lzscr_parser10parse_expr14parse_pat_atoms3_0B5_
FNDA:0,_RNCNvNvCs9nG5uWxm0ao_12lzscr_parser10parse_expr14parse_pat_atoms4_0B5_
FNDA:0,_RNCNvNvCs9nG5uWxm0ao_12lzscr_parser10parse_expr14parse_pat_atoms5_0B5_
FNDA:0,_RNCNvNvCs9nG5uWxm0ao_12lzscr_parser10parse_expr14parse_pat_atoms6_0B5_
FNDA:0,_RNCNvNvCs9nG5uWxm0ao_12lzscr_parser10parse_expr14parse_pat_atoms7_0B5_
FNDA:0,_RNCNvNvCs9nG5uWxm0ao_12lzscr_parser10parse_expr14parse_pat_atoms8_0B5_
FNDA:0,_RNCNvNvCs9nG5uWxm0ao_12lzscr_parser10parse_expr14parse_pat_atoms9_0B5_
FNDA:0,_RNCNvNvCs9nG5uWxm0ao_12lzscr_parser10parse_expr14parse_pat_atoms_0B5_
FNDA:0,_RNCNvNvCs9nG5uWxm0ao_12lzscr_parser10parse_expr19try_parse_type_decl0B5_
FNDA:0,_RNCNvNvNvCs9nG5uWxm0ao_12lzscr_parser10parse_expr15parse_type_expr15parse_type_atom0B7_
FNDA:0,_RNCNvNvNvCs9nG5uWxm0ao_12lzscr_parser10parse_expr15parse_type_expr15parse_type_atoms0_0B7_
FNDA:0,_RNCNvNvNvCs9nG5uWxm0ao_12lzscr_parser10parse_expr15parse_type_expr15parse_type_atoms1_0B7_
FNDA:0,_RNCNvNvNvCs9nG5uWxm0ao_12lzscr_parser10parse_expr15parse_type_expr15parse_type_atoms2_0B7_
FNDA:0,_RNCNvNvNvCs9nG5uWxm0ao_12lzscr_parser10parse_expr15parse_type_expr15parse_type_atoms_0B7_
FNDA:0,_RNCNvNvNvNvCs9nG5uWxm0ao_12lzscr_parser10parse_expr10parse_atom10parse_type15parse_type_atom0B9_
FNDA:0,_RNCNvNvNvNvCs9nG5uWxm0ao_12lzscr_parser10parse_expr10parse_atom10parse_type15parse_type_atoms0_0B9_
FNDA:0,_RNCNvNvNvNvCs9nG5uWxm0ao_12lzscr_parser10parse_expr10parse_atom10parse_type15parse_type_atoms1_0B9_
FNDA:0,_RNCNvNvNvNvCs9nG5uWxm0ao_12lzscr_parser10parse_expr10parse_atom10parse_type15parse_type_atoms2_0B9_
FNDA:0,_RNCNvNvNvNvCs9nG5uWxm0ao_12lzscr_parser10parse_expr10parse_atom10parse_type15parse_type_atoms_0B9_
FNDA:1,_RNvNtCsbUhW39O1vkP_12lzscr_parser5testss_16cons_right_assoc
FNDA:1,_RNvNtCsbUhW39O1vkP_12lzscr_parser5testss_17type_value_parses
FNDA:1,_RNvNtCsbUhW39O1vkP_12lzscr_parser5testss_18list_literal_basic
FNDA:1,_RNvNtCsbUhW39O1vkP_12lzscr_parser5testss_18list_literal_empty
FNDA:1,_RNvNtCsbUhW39O1vkP_12lzscr_parser5testss_18pattern_cons_parse
FNDA:1,_RNvNtCsbUhW39O1vkP_12lzscr_parser5testss_21let_group_parse_basic
FNDA:1,_RNvNtCsbUhW39O1vkP_12lzscr_parser5testss_22alt_lambda_right_assoc
FNDA:1,_RNvNtCsbUhW39O1vkP_12lzscr_parser5testss_22type_annotation_parses
FNDA:1,_RNvNtCsbUhW39O1vkP_12lzscr_parser5testss_23pattern_list_vars_parse
FNDA:1,_RNvNtCsbUhW39O1vkP_12lzscr_parser5testss_27alt_lambda_lower_than_arrow
FNDA:1,_RNvNtCsbUhW39O1vkP_12lzscr_parser5testss_27alt_lambda_requires_lambdas
FNDA:1,_RNvNtCsbUhW39O1vkP_12lzscr_parser5testss_27record_literal_ident_key_ok
FNDA:1,_RNvNtCsbUhW39O1vkP_12lzscr_parser5testss_29char_literal_basic_and_escape
FNDA:1,_RNvNtCsbUhW39O1vkP_12lzscr_parser5testss_30letgroup_with_leading_bindings
FNDA:1,_RNvNtCsbUhW39O1vkP_12lzscr_parser5testss_31letgroup_with_trailing_bindings
FNDA:1,_RNvNtCsbUhW39O1vkP_12lzscr_parser5testss_32pattern_list_bare_ident_rejected
FNDA:1,_RNvNtCsbUhW39O1vkP_12lzscr_parser5testss_34record_literal_string_key_rejected
FNDA:1,_RNvNtCsbUhW39O1vkP_12lzscr_parser5testss_34record_pattern_string_key_rejected
FNDA:1,_RNvNtCsbUhW39O1vkP_12lzscr_parser5testss_45group_without_bindings_is_plain_group_or_unit
FNDA:20,_RNvCsbUhW39O1vkP_12lzscr_parser10parse_expr
FNDA:54,_RNvNvCsbUhW39O1vkP_12lzscr_parser10parse_expr10parse_atom
FNDA:13,_RNvNvCsbUhW39O1vkP_12lzscr_parser10parse_expr12nest_lambdas
FNDA:52,_RNvNvCsbUhW39O1vkP_12lzscr_parser10parse_expr13parse_expr_bp
FNDA:27,_RNvNvCsbUhW39O1vkP_12lzscr_parser10parse_expr13parse_pattern
FNDA:27,_RNvNvCsbUhW39O1vkP_12lzscr_parser10parse_expr14parse_pat_atom
FNDA:13,_RNvNvCsbUhW39O1vkP_12lzscr_parser10parse_expr15collect_binders
FNDA:0,_RNvNvCsbUhW39O1vkP_12lzscr_parser10parse_expr15parse_type_expr
FNDA:11,_RNvNvCsbUhW39O1vkP_12lzscr_parser10parse_expr19try_parse_type_decl
FNDA:11,_RNvNvCsbUhW39O1vkP_12lzscr_parser10parse_expr25try_parse_lhs_param_chain
FNDA:151,_RNvNvCsbUhW39O1vkP_12lzscr_parser10parse_expr4bump
FNDA:84,_RNvNvCsbUhW39O1vkP_12lzscr_parser10parse_expr4peek
FNDA:2,_RNvNvNvCsbUhW39O1vkP_12lzscr_parser10parse_expr10parse_atom10parse_type
FNDA:0,_RNvNvNvCsbUhW39O1vkP_12lzscr_parser10parse_expr15parse_type_expr13parse_type_bp
FNDA:0,_RNvNvNvCsbUhW39O1vkP_12lzscr_parser10parse_expr15parse_type_expr15parse_type_atom
FNDA:3,_RNvNvNvNvCsbUhW39O1vkP_12lzscr_parser10parse_expr10parse_atom10parse_type13parse_type_bp
FNDA:3,_RNvNvNvNvCsbUhW39O1vkP_12lzscr_parser10parse_expr10parse_atom10parse_type15parse_type_atom
FNDA:0,_RNCNvCsbUhW39O1vkP_12lzscr_parser10parse_expr0B3_
FNDA:161,_RNCNvCsbUhW39O1vkP_12lzscr_parser10parse_exprs_0B3_
FNDA:0,_RNCNvNvCsbUhW39O1vkP_12lzscr_parser10parse_expr10parse_atom0B5_
FNDA:0,_RNCNvNvCsbUhW39O1vkP_12lzscr_parser10parse_expr10parse_atoms0_0B5_
FNDA:0,_RNCNvNvCsbUhW39O1vkP_12lzscr_parser10parse_expr10parse_atoms1_0B5_
FNDA:0,_RNCNvNvCsbUhW39O1vkP_12lzscr_parser10parse_expr10parse_atoms2_0B5_
FNDA:0,_RNCNvNvCsbUhW39O1vkP_12lzscr_parser10parse_expr10parse_atoms3_0B5_
FNDA:0,_RNCNvNvCsbUhW39O1vkP_12lzscr_parser10parse_expr10parse_atoms4_0B5_
FNDA:0,_RNCNvNvCsbUhW39O1vkP_12lzscr_parser10parse_expr10parse_atoms5_0B5_
FNDA:0,_RNCNvNvCsbUhW39O1vkP_12lzscr_parser10parse_expr10parse_atoms6_0B5_
FNDA:0,_RNCNvNvCsbUhW39O1vkP_12lzscr_parser10parse_expr10parse_atoms7_0B5_
FNDA:2,_RNCNvNvCsbUhW39O1vkP_12lzscr_parser10parse_expr10parse_atoms8_0B5_
FNDA:0,_RNCNvNvCsbUhW39O1vkP_12lzscr_parser10parse_expr10parse_atoms9_0B5_
FNDA:0,_RNCNvNvCsbUhW39O1vkP_12lzscr_parser10parse_expr10parse_atoms_0B5_
FNDA:0,_RNCNvNvCsbUhW39O1vkP_12lzscr_parser10parse_expr10parse_atomsa_0B5_
FNDA:0,_RNCNvNvCsbUhW39O1vkP_12lzscr_parser10parse_expr10parse_atomsb_0B5_
FNDA:0,_RNCNvNvCsbUhW39O1vkP_12lzscr_parser10parse_expr10parse_atomsc_0B5_
FNDA:0,_RNCNvNvCsbUhW39O1vkP_12lzscr_parser10parse_expr10parse_atomsd_0B5_
FNDA:0,_RNCNvNvCsbUhW39O1vkP_12lzscr_parser10parse_expr10parse_atomse_0B5_
FNDA:0,_RNCNvNvCsbUhW39O1vkP_12lzscr_parser10parse_expr10parse_atomsf_0B5_
FNDA:0,_RNCNvNvCsbUhW39O1vkP_12lzscr_parser10parse_expr10parse_atomsg_0B5_
FNDA:0,_RNCNvNvCsbUhW39O1vkP_12lzscr_parser10parse_expr10parse_atomsh_0B5_
FNDA:0,_RNCNvNvCsbUhW39O1vkP_12lzscr_parser10parse_expr10parse_atomsi_0B5_
FNDA:0,_RNCNvNvCsbUhW39O1vkP_12lzscr_parser10parse_expr14parse_pat_atom0B5_
FNDA:0,_RNCNvNvCsbUhW39O1vkP_12lzscr_parser10parse_expr14parse_pat_atoms0_0B5_
FNDA:0,_RNCNvNvCsbUhW39O1vkP_12lzscr_parser10parse_expr14parse_pat_atoms1_0B5_
FNDA:0,_RNCNvNvCsbUhW39O1vkP_12lzscr_parser10parse_expr14parse_pat_atoms2_0B5_
FNDA:0,_RNCNvNvCsbUhW39O1vkP_12lzscr_parser10parse_expr14parse_pat_atoms3_0B5_
FNDA:0,_RNCNvNvCsbUhW39O1vkP_12lzscr_parser10parse_expr14parse_pat_atoms4_0B5_
FNDA:1,_RNCNvNvCsbUhW39O1vkP_12lzscr_parser10parse_expr14parse_pat_atoms5_0B5_
FNDA:0,_RNCNvNvCsbUhW39O1vkP_12lzscr_parser10parse_expr14parse_pat_atoms6_0B5_
FNDA:0,_RNCNvNvCsbUhW39O1vkP_12lzscr_parser10parse_expr14parse_pat_atoms7_0B5_
FNDA:0,_RNCNvNvCsbUhW39O1vkP_12lzscr_parser10parse_expr14parse_pat_atoms8_0B5_
FNDA:0,_RNCNvNvCsbUhW39O1vkP_12lzscr_parser10parse_expr14parse_pat_atoms9_0B5_
FNDA:0,_RNCNvNvCsbUhW39O1vkP_12lzscr_parser10parse_expr14parse_pat_atoms_0B5_
FNDA:0,_RNCNvNvCsbUhW39O1vkP_12lzscr_parser10parse_expr19try_parse_type_decl0B5_
FNDA:0,_RNCNvNvNvCsbUhW39O1vkP_12lzscr_parser10parse_expr15parse_type_expr15parse_type_atom0B7_
FNDA:0,_RNCNvNvNvCsbUhW39O1vkP_12lzscr_parser10parse_expr15parse_type_expr15parse_type_atoms0_0B7_
FNDA:0,_RNCNvNvNvCsbUhW39O1vkP_12lzscr_parser10parse_expr15parse_type_expr15parse_type_atoms1_0B7_
FNDA:0,_RNCNvNvNvCsbUhW39O1vkP_12lzscr_parser10parse_expr15parse_type_expr15parse_type_atoms2_0B7_
FNDA:0,_RNCNvNvNvCsbUhW39O1vkP_12lzscr_parser10parse_expr15parse_type_expr15parse_type_atoms_0B7_
FNDA:0,_RNCNvNvNvNvCsbUhW39O1vkP_12lzscr_parser10parse_expr10parse_atom10parse_type15parse_type_atom0B9_
FNDA:0,_RNCNvNvNvNvCsbUhW39O1vkP_12lzscr_parser10parse_expr10parse_atom10parse_type15parse_type_atoms0_0B9_
FNDA:0,_RNCNvNvNvNvCsbUhW39O1vkP_12lzscr_parser10parse_expr10parse_atom10parse_type15parse_type_atoms1_0B9_
FNDA:0,_RNCNvNvNvNvCsbUhW39O1vkP_12lzscr_parser10parse_expr10parse_atom10parse_type15parse_type_atoms2_0B9_
FNDA:0,_RNCNvNvNvNvCsbUhW39O1vkP_12lzscr_parser10parse_expr10parse_atom10parse_type15parse_type_atoms_0B9_
FNF:82
FNH:36
DA:13,43
DA:15,43
DA:17,43
DA:19,422
DA:20,43
DA:22,554
DA:23,554
DA:24,554
DA:25,554
DA:26,554
DA:27,554
DA:28,795
DA:29,795
DA:30,795
DA:31,795
DA:32,795
DA:33,795
DA:34,795
DA:35,795
DA:36,795
DA:37,795
DA:40,176
DA:41,176
DA:42,176
DA:43,176
DA:44,176
DA:45,176
DA:46,176
DA:50,6
DA:51,6
DA:55,6
DA:56,6
DA:57,0
DA:58,0
DA:59,6
DA:61,0
DA:62,0
DA:63,0
DA:66,6
DA:67,0
DA:68,0
DA:69,6
DA:70,6
DA:72,0
DA:73,0
DA:74,0
DA:78,6
DA:79,0
DA:80,0
DA:81,6
DA:82,0
DA:83,6
DA:85,0
DA:86,0
DA:87,0
DA:92,6
DA:93,6
DA:94,6
DA:95,6
DA:96,6
DA:100,59
DA:101,0
DA:102,0
DA:103,59
DA:104,59
DA:105,59
DA:106,59
DA:109,0
DA:115,19
DA:116,19
DA:117,2
DA:118,2
DA:119,2
DA:120,2
DA:121,2
DA:122,17
DA:124,0
DA:126,17
DA:127,10
DA:128,10
DA:129,0
DA:130,0
DA:132,0
DA:133,0
DA:134,0
DA:135,0
DA:136,0
DA:137,0
DA:138,0
DA:139,0
DA:141,0
DA:142,0
DA:143,0
DA:147,0
DA:148,0
DA:149,0
DA:150,0
DA:151,0
DA:152,0
DA:153,0
DA:155,10
DA:156,7
DA:157,7
DA:158,7
DA:159,7
DA:160,7
DA:162,3
DA:163,3
DA:164,3
DA:167,0
DA:172,2
DA:173,2
DA:174,0
DA:175,0
DA:176,0
DA:177,0
DA:180,2
DA:182,3
DA:183,2
DA:184,2
DA:185,0
DA:186,0
DA:187,2
DA:188,1
DA:189,1
DA:191,0
DA:192,0
DA:193,0
DA:197,1
DA:198,1
DA:199,1
DA:200,1
DA:201,1
DA:202,1
DA:203,1
DA:207,0
DA:212,1
DA:213,1
DA:214,0
DA:215,0
DA:216,0
DA:217,0
DA:220,1
DA:222,1
DA:223,0
DA:224,0
DA:225,1
DA:226,0
DA:228,1
DA:229,1
DA:230,1
DA:233,0
DA:234,0
DA:235,0
DA:236,0
DA:237,0
DA:238,0
DA:239,0
DA:240,0
DA:241,0
DA:242,0
DA:243,0
DA:244,0
DA:245,0
DA:246,0
DA:247,0
DA:248,0
DA:250,0
DA:251,0
DA:252,0
DA:256,0
DA:257,0
DA:258,0
DA:259,0
DA:260,0
DA:261,0
DA:262,0
DA:266,0
DA:269,30
DA:270,0
DA:271,0
DA:272,0
DA:274,7
DA:275,0
DA:276,7
DA:277,6
DA:279,1
DA:282,6
DA:283,6
DA:284,6
DA:286,14
DA:287,14
DA:288,6
DA:299,8
DA:300,8
DA:302,0
DA:305,6
DA:306,0
DA:308,6
DA:309,6
DA:311,6
DA:312,6
DA:313,6
DA:316,46
DA:318,115
DA:319,176
DA:321,168
DA:322,168
DA:323,168
DA:324,168
DA:326,168
DA:329,110
DA:330,110
DA:331,1
DA:332,1
DA:333,1
DA:334,1
DA:335,1
DA:337,1
DA:338,1
DA:339,109
DA:340,0
DA:341,109
DA:344,109
DA:345,109
DA:346,0
DA:347,0
DA:348,0
DA:349,0
DA:350,0
DA:352,0
DA:353,109
DA:354,0
DA:355,109
DA:356,168
DA:359,51
DA:360,51
DA:361,51
DA:362,51
DA:363,51
DA:364,51
DA:365,51
DA:366,25
DA:367,26
DA:368,26
DA:369,26
DA:370,26
DA:371,0
DA:372,0
DA:373,26
DA:374,26
DA:375,26
DA:376,26
DA:378,53
DA:379,53
DA:380,5
DA:381,48
DA:382,0
DA:383,48
DA:384,48
DA:385,27
DA:386,27
DA:387,21
DA:388,21
DA:391,26
DA:392,26
DA:393,5
DA:394,21
DA:395,0
DA:396,21
DA:397,21
DA:398,51
DA:400,48
DA:401,48
DA:402,33
DA:403,1
DA:404,3
DA:405,2
DA:406,2
DA:408,6
DA:409,14
DA:410,8
DA:411,8
DA:413,0
DA:414,0
DA:415,0
DA:416,0
DA:418,1
DA:419,1
DA:420,1
DA:421,1
DA:422,6
DA:423,6
DA:424,6
DA:425,1
DA:427,48
DA:429,35
DA:430,35
DA:431,35
DA:432,30
DA:433,30
DA:434,30
DA:435,35
DA:436,35
DA:439,0
DA:440,0
DA:441,0
DA:442,0
DA:443,0
DA:444,0
DA:445,0
DA:446,0
DA:447,0
DA:448,0
DA:449,0
DA:450,0
DA:451,0
DA:452,0
DA:453,0
DA:454,0
DA:455,0
DA:456,0
DA:458,0
DA:459,0
DA:461,0
DA:462,0
DA:463,0
DA:464,0
DA:465,0
DA:466,0
DA:467,0
DA:470,0
DA:471,0
DA:472,0
DA:473,0
DA:474,0
DA:475,0
DA:476,0
DA:477,0
DA:479,0
DA:480,0
DA:482,0
DA:484,0
DA:485,0
DA:486,0
DA:489,0
DA:490,0
DA:492,0
DA:495,0
DA:498,0
DA:499,0
DA:500,0
DA:501,0
DA:502,0
DA:503,0
DA:504,0
DA:506,0
DA:507,0
DA:508,0
DA:509,0
DA:510,0
DA:512,0
DA:513,0
DA:514,0
DA:517,0
DA:518,0
DA:519,0
DA:520,0
DA:521,0
DA:522,0
DA:523,0
DA:524,0
DA:525,0
DA:526,0
DA:527,0
DA:528,0
DA:529,0
DA:530,0
DA:532,0
DA:533,0
DA:534,0
DA:538,0
DA:541,0
DA:542,0
DA:543,0
DA:544,0
DA:545,0
DA:547,0
DA:550,0
DA:552,0
DA:554,0
DA:556,0
DA:557,0
DA:558,0
DA:559,0
DA:560,0
DA:561,0
DA:562,0
DA:564,0
DA:565,0
DA:566,0
DA:567,0
DA:568,0
DA:569,0
DA:570,0
DA:571,0
DA:572,0
DA:573,0
DA:574,0
DA:576,0
DA:577,0
DA:578,0
DA:579,0
DA:583,51
DA:584,51
DA:585,51
DA:586,51
DA:587,51
DA:588,51
DA:589,51
DA:590,0
DA:592,51
DA:593,51
DA:594,0
DA:595,0
DA:596,0
DA:597,0
DA:598,0
DA:599,0
DA:600,0
DA:601,0
DA:602,0
DA:605,0
DA:606,0
DA:607,0
DA:608,0
DA:609,0
DA:610,0
DA:613,0
DA:614,0
DA:616,0
DA:617,0
DA:618,0
DA:619,0
DA:620,0
DA:621,0
DA:624,0
DA:625,0
DA:627,0
DA:629,0
DA:630,0
DA:632,0
DA:633,0
DA:636,0
DA:637,0
DA:639,0
DA:640,0
DA:643,0
DA:644,0
DA:646,0
DA:647,0
DA:648,0
DA:650,0
DA:651,0
DA:653,0
DA:654,0
DA:658,0
DA:659,0
DA:660,0
DA:662,0
DA:663,0
DA:666,0
DA:668,0
DA:669,0
DA:672,0
DA:673,0
DA:676,0
DA:677,0
DA:682,0
DA:683,0
DA:684,0
DA:685,0
DA:686,0
DA:687,0
DA:688,0
DA:689,0
DA:690,0
DA:692,0
DA:693,0
DA:694,0
DA:696,0
DA:697,51
DA:699,309
DA:700,309
DA:701,309
DA:702,309
DA:703,309
DA:704,309
DA:707,2
DA:709,3
DA:710,3
DA:711,3
DA:713,3
DA:714,3
DA:715,3
DA:716,0
DA:717,0
DA:718,0
DA:719,0
DA:720,0
DA:723,0
DA:724,0
DA:727,0
DA:728,0
DA:729,0
DA:730,0
DA:734,0
DA:735,0
DA:736,0
DA:737,0
DA:738,0
DA:739,0
DA:741,0
DA:742,0
DA:743,0
DA:744,0
DA:745,0
DA:748,0
DA:752,0
DA:753,0
DA:755,0
DA:756,0
DA:757,0
DA:758,0
DA:759,0
DA:760,0
DA:761,0
DA:762,0
DA:764,0
DA:768,0
DA:769,0
DA:771,0
DA:773,3
DA:774,3
DA:775,3
DA:777,4
DA:779,4
DA:780,1
DA:781,1
DA:782,1
DA:783,1
DA:784,1
DA:785,3
DA:786,3
DA:788,3
DA:789,3
DA:790,2
DA:791,2
DA:792,2
DA:793,2
DA:794,2
DA:795,2
DA:797,2
DA:798,1
DA:801,1
DA:802,1
DA:803,1
DA:804,1
DA:806,0
DA:808,1
DA:810,1
DA:811,1
DA:812,1
DA:816,4
DA:817,4
DA:818,2
DA:819,2
DA:820,2
DA:821,2
DA:822,2
DA:823,2
DA:824,0
DA:825,2
DA:827,5
DA:828,5
DA:829,5
DA:830,5
DA:831,3
DA:833,2
DA:834,2
DA:836,0
DA:842,0
DA:843,0
DA:844,0
DA:845,0
DA:846,0
DA:847,0
DA:848,0
DA:850,88
DA:851,0
DA:852,32
DA:853,3
DA:854,6
DA:856,61
DA:857,61
DA:858,61
DA:859,61
DA:860,61
DA:861,61
DA:863,0
DA:870,32
DA:871,32
DA:872,5
DA:875,5
DA:876,5
DA:878,20
DA:879,0
DA:881,20
DA:882,5
DA:883,5
DA:885,5
DA:887,5
DA:888,5
DA:889,5
DA:890,5
DA:891,5
DA:892,5
DA:893,10
DA:894,10
DA:895,5
DA:896,5
DA:897,5
DA:898,5
DA:899,5
DA:900,5
DA:901,5
DA:902,5
DA:903,5
DA:904,5
DA:905,5
DA:906,5
DA:909,5
DA:910,15
DA:912,15
DA:913,15
DA:914,10
DA:915,10
DA:916,5
DA:917,5
DA:918,5
DA:919,5
DA:920,0
DA:921,5
DA:922,5
DA:923,5
DA:924,5
DA:925,0
DA:927,5
DA:928,5
DA:930,10
DA:931,10
DA:932,10
DA:933,5
DA:934,5
DA:935,5
DA:936,5
DA:937,0
DA:938,5
DA:939,0
DA:940,5
DA:941,5
DA:943,27
DA:944,0
DA:945,27
DA:946,27
DA:947,27
DA:948,27
DA:949,27
DA:951,27
DA:952,22
DA:953,5
DA:954,0
DA:956,27
DA:957,27
DA:958,27
DA:959,27
DA:960,27
DA:961,27
DA:962,27
DA:963,27
DA:969,32
DA:971,32
DA:972,30
DA:974,30
DA:975,30
DA:976,30
DA:977,30
DA:981,0
DA:982,0
DA:983,0
DA:984,0
DA:986,0
DA:987,0
DA:988,0
DA:989,0
DA:990,0
DA:991,0
DA:995,0
DA:996,0
DA:997,0
DA:998,0
DA:999,0
DA:1000,0
DA:1001,0
DA:1002,0
DA:1003,0
DA:1008,30
DA:1009,60
DA:1010,30
DA:1011,30
DA:1012,0
DA:1013,30
DA:1015,30
DA:1017,30
DA:1021,47
DA:1022,47
DA:1023,4
DA:1024,4
DA:1025,4
DA:1026,4
DA:1027,4
DA:1028,43
DA:1029,0
DA:1032,43
DA:1033,43
DA:1034,43
DA:1035,43
DA:1037,46
DA:1038,46
DA:1039,46
DA:1040,0
DA:1041,0
DA:1042,0
DA:1043,46
DA:1045,46
DA:1047,3
DA:1048,3
DA:1049,3
DA:1050,3
DA:1051,0
DA:1052,3
DA:1053,3
DA:1054,3
DA:1055,3
DA:1056,3
DA:1057,3
DA:1058,3
DA:1059,3
DA:1060,3
DA:1061,3
DA:1062,3
DA:1063,43
DA:1065,43
DA:1066,23
DA:1067,0
DA:1068,0
DA:1069,0
DA:1070,0
DA:1071,0
DA:1072,0
DA:1073,0
DA:1074,0
DA:1075,23
DA:1076,20
DA:1077,43
DA:1078,43
DA:1081,43
DA:1082,43
DA:1084,43
DA:1085,43
DA:1086,43
DA:1087,43
DA:1088,3
DA:1090,5
DA:1091,5
DA:1092,5
DA:1093,0
DA:1094,0
DA:1095,0
DA:1096,5
DA:1097,5
DA:1098,2
DA:1099,2
DA:1100,2
DA:1101,2
DA:1102,0
DA:1103,2
DA:1104,2
DA:1105,2
DA:1106,2
DA:1107,2
DA:1108,2
DA:1109,2
DA:1110,2
DA:1111,2
DA:1112,2
DA:1113,2
DA:1114,3
DA:1115,3
DA:1116,0
DA:1117,0
DA:1118,0
DA:1119,0
DA:1120,0
DA:1121,0
DA:1122,0
DA:1123,0
DA:1124,0
DA:1125,0
DA:1126,3
DA:1127,3
DA:1128,3
DA:1130,40
DA:1131,0
DA:1133,43
DA:1134,43
DA:1135,4
DA:1136,4
DA:1137,4
DA:1138,4
DA:1139,4
DA:1140,4
DA:1141,4
DA:1142,39
DA:1143,0
DA:1146,39
DA:1147,39
DA:1148,39
DA:1150,39
DA:1151,39
DA:1152,0
DA:1154,39
DA:1155,39
DA:1156,39
DA:1158,0
DA:1159,0
DA:1160,0
DA:1161,0
DA:1162,0
DA:1164,0
DA:1165,0
DA:1166,0
DA:1167,0
DA:1168,0
DA:1169,0
DA:1171,0
DA:1178,2
DA:1179,2
DA:1180,0
DA:1181,0
DA:1183,0
DA:1184,2
DA:1185,0
DA:1186,2
DA:1189,3
DA:1190,3
DA:1192,2
DA:1195,2
DA:1197,2
DA:1199,0
DA:1202,2
DA:1203,2
DA:1205,2
DA:1206,2
DA:1208,0
DA:1209,0
DA:1210,0
DA:1211,0
DA:1212,0
DA:1213,0
DA:1214,0
DA:1215,2
DA:1216,2
DA:1218,2
DA:1219,2
DA:1220,1
DA:1222,1
DA:1224,1
DA:1225,1
DA:1226,1
DA:1227,1
DA:1228,1
DA:1230,1
DA:1231,3
DA:1232,2
DA:1233,2
DA:1234,2
DA:1235,2
DA:1236,2
DA:1238,1
DA:1239,1
DA:1241,0
DA:1246,0
DA:1247,0
DA:1248,0
DA:1249,0
DA:1252,0
DA:1253,0
DA:1254,0
DA:1255,0
DA:1258,309
DA:1260,198
DA:1261,198
DA:1262,198
DA:1263,198
DA:1264,198
DA:1265,198
DA:1267,320
DA:1269,261
DA:1271,15
DA:1272,0
DA:1273,2
DA:1274,5
DA:1275,0
DA:1276,0
DA:1277,0
DA:1278,0
DA:1279,0
DA:1280,0
DA:1281,0
DA:1282,0
DA:1283,0
DA:1284,0
DA:1285,0
DA:1286,0
DA:1287,0
DA:1288,0
DA:1289,0
DA:1290,0
DA:1291,0
DA:1292,239
DA:1294,261
DA:1295,22
DA:1296,7
DA:1297,15
DA:1299,15
DA:1301,15
DA:1303,0
DA:1304,0
DA:1305,0
DA:1306,0
DA:1308,0
DA:1309,0
DA:1310,0
DA:1312,0
DA:1313,15
DA:1314,15
DA:1316,8
DA:1318,8
DA:1323,7
DA:1324,7
DA:1325,7
DA:1327,7
DA:1328,7
DA:1329,7
DA:1331,7
DA:1334,1
DA:1335,1
DA:1336,1
DA:1339,7
DA:1340,7
DA:1342,2
DA:1343,2
DA:1344,2
DA:1345,2
DA:1348,2
DA:1349,2
DA:1350,2
DA:1351,2
DA:1353,2
DA:1354,2
DA:1355,2
DA:1357,2
DA:1358,5
DA:1359,5
DA:1361,5
DA:1362,5
DA:1363,0
DA:1364,0
DA:1365,0
DA:1366,0
DA:1367,0
DA:1368,0
DA:1369,0
DA:1370,0
DA:1371,0
DA:1372,0
DA:1373,0
DA:1374,0
DA:1375,0
DA:1376,0
DA:1377,0
DA:1378,0
DA:1379,0
DA:1380,0
DA:1382,5
DA:1383,5
DA:1384,5
DA:1385,5
DA:1386,5
DA:1387,5
DA:1388,239
DA:1390,239
DA:1391,0
DA:1392,0
DA:1393,0
DA:1394,0
DA:1395,0
DA:1396,0
DA:1397,0
DA:1398,0
DA:1400,0
DA:1401,0
DA:1402,0
DA:1404,0
DA:1405,0
DA:1406,0
DA:1407,239
DA:1408,239
DA:1422,111
DA:1423,111
DA:1424,111
DA:1425,111
DA:1428,111
DA:1429,6
DA:1431,0
DA:1432,0
DA:1433,6
DA:1434,105
DA:1435,111
DA:1436,111
DA:1437,111
DA:1440,128
DA:1443,194
DA:1444,198
DA:1446,43
DA:1447,39
DA:1448,43
DA:1455,1
DA:1456,1
DA:1457,1
DA:1458,1
DA:1459,1
DA:1462,1
DA:1463,1
DA:1464,1
DA:1465,1
DA:1466,1
DA:1467,1
DA:1469,0
DA:1471,1
DA:1474,1
DA:1475,1
DA:1476,1
DA:1477,1
DA:1478,1
DA:1479,1
DA:1480,0
DA:1483,0
DA:1485,1
DA:1488,1
DA:1489,1
DA:1490,1
DA:1491,1
DA:1492,1
DA:1493,0
DA:1495,1
DA:1498,1
DA:1499,1
DA:1500,1
DA:1501,1
DA:1502,1
DA:1503,0
DA:1505,1
DA:1508,1
DA:1510,1
DA:1511,1
DA:1513,1
DA:1514,1
DA:1517,1
DA:1518,1
DA:1519,1
DA:1520,1
DA:1521,1
DA:1522,1
DA:1523,1
DA:1524,0
DA:1526,1
DA:1528,0
DA:1530,1
DA:1533,1
DA:1534,1
DA:1535,1
DA:1536,1
DA:1537,1
DA:1538,1
DA:1539,1
DA:1540,1
DA:1542,0
DA:1544,0
DA:1546,1
DA:1549,1
DA:1551,1
DA:1552,1
DA:1553,1
DA:1554,1
DA:1555,1
DA:1556,1
DA:1557,1
DA:1558,1
DA:1560,0
DA:1562,0
DA:1564,1
DA:1567,1
DA:1568,1
DA:1569,1
DA:1570,1
DA:1571,1
DA:1572,1
DA:1573,0
DA:1574,0
DA:1577,0
DA:1579,1
DA:1582,1
DA:1584,1
DA:1585,1
DA:1586,1
DA:1587,1
DA:1588,1
DA:1589,1
DA:1590,1
DA:1592,0
DA:1594,0
DA:1596,1
DA:1599,1
DA:1600,1
DA:1601,1
DA:1602,1
DA:1603,1
DA:1606,1
DA:1607,1
DA:1608,1
DA:1610,1
DA:1611,1
DA:1614,1
DA:1615,1
DA:1616,1
DA:1617,1
DA:1618,0
DA:1620,1
DA:1621,1
DA:1622,1
DA:1623,0
DA:1625,1
DA:1628,1
DA:1629,1
DA:1630,1
DA:1631,1
DA:1632,1
DA:1633,1
DA:1634,1
DA:1636,0
DA:1638,1
DA:1641,1
DA:1643,1
DA:1644,1
DA:1645,1
DA:1646,1
DA:1647,1
DA:1648,1
DA:1649,1
DA:1650,0
DA:1653,0
DA:1655,1
DA:1658,1
DA:1660,1
DA:1661,1
DA:1662,1
DA:1663,0
DA:1665,1
DA:1668,1
DA:1669,1
DA:1670,1
DA:1671,1
DA:1672,0
DA:1674,1
DA:1677,1
DA:1678,1
DA:1679,1
DA:1680,1
DA:1681,0
DA:1683,1
BRF:0
BRH:0
LF:1259
LH:584
end_of_record
SF:/home/mako10k/lzscr/crates/lzscr-preast/src/lib.rs
FN:59,_RNvCsiKdgG4y1Si1_12lzscr_preast16preast_to_source
FN:79,_RNvCsiKdgG4y1Si1_12lzscr_preast17is_operator_token
FN:63,_RNvCsiKdgG4y1Si1_12lzscr_preast18needs_space_before
FN:71,_RNvCsiKdgG4y1Si1_12lzscr_preast24needs_space_before_token
FN:120,_RNvCsiKdgG4y1Si1_12lzscr_preast26preast_to_source_with_opts
FN:30,_RNvCsiKdgG4y1Si1_12lzscr_preast9to_preast
FN:115,_RNvXCsiKdgG4y1Si1_12lzscr_preastNtB2_10FormatOptsNtNtCs66KPHxksi63_4core7default7Default7default
FN:129,_RNCNvCsiKdgG4y1Si1_12lzscr_preast26preast_to_source_with_opts0B3_
FN:133,_RNCNvCsiKdgG4y1Si1_12lzscr_preast26preast_to_source_with_optss_0B3_
FN:129,_RNCNvCsg9XsDM7FxCx_12lzscr_preast26preast_to_source_with_opts0B3_
FN:133,_RNCNvCsg9XsDM7FxCx_12lzscr_preast26preast_to_source_with_optss_0B3_
FN:59,_RNvCsg9XsDM7FxCx_12lzscr_preast16preast_to_source
FN:79,_RNvCsg9XsDM7FxCx_12lzscr_preast17is_operator_token
FN:63,_RNvCsg9XsDM7FxCx_12lzscr_preast18needs_space_before
FN:71,_RNvCsg9XsDM7FxCx_12lzscr_preast24needs_space_before_token
FN:120,_RNvCsg9XsDM7FxCx_12lzscr_preast26preast_to_source_with_opts
FN:30,_RNvCsg9XsDM7FxCx_12lzscr_preast9to_preast
FN:115,_RNvXCsg9XsDM7FxCx_12lzscr_preastNtB2_10FormatOptsNtNtCs66KPHxksi63_4core7default7Default7default
FNDA:1,_RNvCsiKdgG4y1Si1_12lzscr_preast16preast_to_source
FNDA:5,_RNvCsiKdgG4y1Si1_12lzscr_preast17is_operator_token
FNDA:3,_RNvCsiKdgG4y1Si1_12lzscr_preast18needs_space_before
FNDA:0,_RNvCsiKdgG4y1Si1_12lzscr_preast24needs_space_before_token
FNDA:1,_RNvCsiKdgG4y1Si1_12lzscr_preast26preast_to_source_with_opts
FNDA:44,_RNvCsiKdgG4y1Si1_12lzscr_preast9to_preast
FNDA:1,_RNvXCsiKdgG4y1Si1_12lzscr_preastNtB2_10FormatOptsNtNtCs66KPHxksi63_4core7default7Default7default
FNDA:5,_RNCNvCsiKdgG4y1Si1_12lzscr_preast26preast_to_source_with_opts0B3_
FNDA:0,_RNCNvCsiKdgG4y1Si1_12lzscr_preast26preast_to_source_with_optss_0B3_
FNDA:0,_RNCNvCsg9XsDM7FxCx_12lzscr_preast26preast_to_source_with_opts0B3_
FNDA:0,_RNCNvCsg9XsDM7FxCx_12lzscr_preast26preast_to_source_with_optss_0B3_
FNDA:0,_RNvCsg9XsDM7FxCx_12lzscr_preast16preast_to_source
FNDA:0,_RNvCsg9XsDM7FxCx_12lzscr_preast17is_operator_token
FNDA:0,_RNvCsg9XsDM7FxCx_12lzscr_preast18needs_space_before
FNDA:0,_RNvCsg9XsDM7FxCx_12lzscr_preast24needs_space_before_token
FNDA:0,_RNvCsg9XsDM7FxCx_12lzscr_preast26preast_to_source_with_opts
FNDA:0,_RNvCsg9XsDM7FxCx_12lzscr_preast9to_preast
FNDA:0,_RNvXCsg9XsDM7FxCx_12lzscr_preastNtB2_10FormatOptsNtNtCs66KPHxksi63_4core7default7Default7default
FNF:9
FNH:7
DA:30,44
DA:31,44
DA:32,44
DA:33,471
DA:34,427
DA:35,0
DA:36,0
DA:37,0
DA:38,0
DA:39,0
DA:40,0
DA:41,0
DA:42,0
DA:43,0
DA:44,0
DA:45,0
DA:46,0
DA:47,427
DA:48,427
DA:49,427
DA:50,427
DA:53,44
DA:54,44
DA:59,1
DA:60,1
DA:61,1
DA:63,3
DA:64,3
DA:65,1
DA:66,2
DA:67,2
DA:68,2
DA:69,3
DA:71,0
DA:72,0
DA:73,0
DA:74,0
DA:75,0
DA:76,0
DA:77,0
DA:79,5
DA:80,2
DA:81,5
DA:82,5
DA:83,4
DA:84,3
DA:85,3
DA:86,3
DA:87,3
DA:88,3
DA:89,3
DA:90,3
DA:91,3
DA:92,3
DA:93,3
DA:94,3
DA:95,3
DA:96,3
DA:97,3
DA:98,3
DA:99,3
DA:100,3
DA:101,3
DA:102,3
DA:103,3
DA:104,3
DA:106,5
DA:115,1
DA:116,1
DA:117,1
DA:120,1
DA:123,1
DA:124,1
DA:125,1
DA:126,1
DA:127,1
DA:129,5
DA:130,5
DA:131,5
DA:132,5
DA:133,1
DA:134,0
DA:135,0
DA:136,0
DA:137,0
DA:138,0
DA:139,0
DA:141,6
DA:142,5
DA:143,0
DA:144,0
DA:145,0
DA:147,0
DA:148,0
DA:149,0
DA:150,0
DA:151,0
DA:152,0
DA:155,0
DA:156,0
DA:157,0
DA:158,0
DA:159,0
DA:160,0
DA:161,0
DA:162,0
DA:163,0
DA:164,0
DA:165,0
DA:166,0
DA:168,0
DA:169,0
DA:170,0
DA:171,0
DA:172,0
DA:173,0
DA:174,0
DA:177,0
DA:178,0
DA:180,0
DA:181,0
DA:182,0
DA:183,0
DA:184,0
DA:185,0
DA:186,0
DA:187,0
DA:188,0
DA:190,5
DA:191,5
DA:192,5
DA:193,5
DA:194,5
DA:195,5
DA:196,2
DA:197,2
DA:198,2
DA:199,2
DA:200,2
DA:201,2
DA:202,2
DA:203,2
DA:204,2
DA:206,3
DA:207,2
DA:208,0
DA:209,0
DA:210,2
DA:211,1
DA:212,0
DA:213,0
DA:214,1
DA:215,3
DA:216,3
DA:217,3
DA:219,5
DA:220,0
DA:221,5
DA:222,5
DA:223,0
DA:224,5
DA:225,5
DA:226,0
DA:227,0
DA:228,0
DA:229,5
DA:233,1
DA:234,1
BRF:0
BRH:0
LF:170
LH:96
end_of_record
SF:/home/mako10k/lzscr/crates/lzscr-runtime/src/lib.rs
FN:179,_RINvMs4_CsdoUjjxPgBMl_13lzscr_runtimeNtB6_3Env13intern_stringNtNtCs8Ty2CzGA6U3_5alloc6string6StringEB6_
FN:179,_RINvMs4_CsdoUjjxPgBMl_13lzscr_runtimeNtB6_3Env13intern_stringRNtNtCs8Ty2CzGA6U3_5alloc6string6StringEB6_
FN:163,_RINvMs4_CsdoUjjxPgBMl_13lzscr_runtimeNtB6_3Env13intern_symbolRNtNtCs8Ty2CzGA6U3_5alloc6string6StringEB6_
FN:163,_RINvMs4_CsdoUjjxPgBMl_13lzscr_runtimeNtB6_3Env13intern_symbolReEB6_
FN:1080,_RNCNCNvMs4_CsdoUjjxPgBMl_13lzscr_runtimeNtB9_3Env13with_builtinssK_00B9_
FN:1688,_RNCNvCsdoUjjxPgBMl_13lzscr_runtime11apply_value0B3_
FN:1703,_RNCNvCsdoUjjxPgBMl_13lzscr_runtime11apply_values0_0B3_
FN:1708,_RNCNvCsdoUjjxPgBMl_13lzscr_runtime11apply_values1_0B3_
FN:1692,_RNCNvCsdoUjjxPgBMl_13lzscr_runtime11apply_values_0B3_
FN:1404,_RNCNvCsdoUjjxPgBMl_13lzscr_runtime11eff_println0B3_
FN:1407,_RNCNvCsdoUjjxPgBMl_13lzscr_runtime11eff_printlns0_0B3_
FN:1415,_RNCNvCsdoUjjxPgBMl_13lzscr_runtime11eff_printlns1_0B3_
FN:1423,_RNCNvCsdoUjjxPgBMl_13lzscr_runtime11eff_printlns2_0B3_
FN:1430,_RNCNvCsdoUjjxPgBMl_13lzscr_runtime11eff_printlns3_0B3_
FN:1437,_RNCNvCsdoUjjxPgBMl_13lzscr_runtime11eff_printlns_0B3_
FN:1203,_RNCNvCsdoUjjxPgBMl_13lzscr_runtime11to_str_like0B3_
FN:1207,_RNCNvCsdoUjjxPgBMl_13lzscr_runtime11to_str_likes0_0B3_
FN:1215,_RNCNvCsdoUjjxPgBMl_13lzscr_runtime11to_str_likes1_0B3_
FN:1220,_RNCNvCsdoUjjxPgBMl_13lzscr_runtime11to_str_likes2_0B3_
FN:1223,_RNCNvCsdoUjjxPgBMl_13lzscr_runtime11to_str_likes3_0B3_
FN:1228,_RNCNvCsdoUjjxPgBMl_13lzscr_runtime11to_str_likes_0B3_
FN:1890,_RNCNvCsdoUjjxPgBMl_13lzscr_runtime4eval0B3_
FN:2012,_RNCNvCsdoUjjxPgBMl_13lzscr_runtime4evals0_0B3_
FN:1996,_RNCNvCsdoUjjxPgBMl_13lzscr_runtime4evals_0B3_
FN:1466,_RNCNvCsdoUjjxPgBMl_13lzscr_runtime7v_equal0B3_
FN:1472,_RNCNvCsdoUjjxPgBMl_13lzscr_runtime7v_equals0_0B3_
FN:1478,_RNCNvCsdoUjjxPgBMl_13lzscr_runtime7v_equals1_0B3_
FN:1469,_RNCNvCsdoUjjxPgBMl_13lzscr_runtime7v_equals_0B3_
FN:1317,_RNCNvCsdoUjjxPgBMl_13lzscr_runtime9eff_print0B3_
FN:1320,_RNCNvCsdoUjjxPgBMl_13lzscr_runtime9eff_prints0_0B3_
FN:1328,_RNCNvCsdoUjjxPgBMl_13lzscr_runtime9eff_prints1_0B3_
FN:1336,_RNCNvCsdoUjjxPgBMl_13lzscr_runtime9eff_prints2_0B3_
FN:1343,_RNCNvCsdoUjjxPgBMl_13lzscr_runtime9eff_prints3_0B3_
FN:1350,_RNCNvCsdoUjjxPgBMl_13lzscr_runtime9eff_prints_0B3_
FN:22,_RNCNvMCsdoUjjxPgBMl_13lzscr_runtimeNtB4_5RtStr10char_count0B4_
FN:23,_RNCNvMCsdoUjjxPgBMl_13lzscr_runtimeNtB4_5RtStr10char_counts_0B4_
FN:222,_RNCNvMs4_CsdoUjjxPgBMl_13lzscr_runtimeNtB7_3Env13with_builtins0B7_
FN:250,_RNCNvMs4_CsdoUjjxPgBMl_13lzscr_runtimeNtB7_3Env13with_builtinss0_0B7_
FN:268,_RNCNvMs4_CsdoUjjxPgBMl_13lzscr_runtimeNtB7_3Env13with_builtinss1_0B7_
FN:292,_RNCNvMs4_CsdoUjjxPgBMl_13lzscr_runtimeNtB7_3Env13with_builtinss2_0B7_
FN:306,_RNCNvMs4_CsdoUjjxPgBMl_13lzscr_runtimeNtB7_3Env13with_builtinss3_0B7_
FN:320,_RNCNvMs4_CsdoUjjxPgBMl_13lzscr_runtimeNtB7_3Env13with_builtinss4_0B7_
FN:334,_RNCNvMs4_CsdoUjjxPgBMl_13lzscr_runtimeNtB7_3Env13with_builtinss5_0B7_
FN:348,_RNCNvMs4_CsdoUjjxPgBMl_13lzscr_runtimeNtB7_3Env13with_builtinss6_0B7_
FN:360,_RNCNvMs4_CsdoUjjxPgBMl_13lzscr_runtimeNtB7_3Env13with_builtinss7_0B7_
FN:372,_RNCNvMs4_CsdoUjjxPgBMl_13lzscr_runtimeNtB7_3Env13with_builtinss8_0B7_
FN:384,_RNCNvMs4_CsdoUjjxPgBMl_13lzscr_runtimeNtB7_3Env13with_builtinss9_0B7_
FN:825,_RNCNvMs4_CsdoUjjxPgBMl_13lzscr_runtimeNtB7_3Env13with_builtinssA_0B7_
FN:842,_RNCNvMs4_CsdoUjjxPgBMl_13lzscr_runtimeNtB7_3Env13with_builtinssB_0B7_
FN:865,_RNCNvMs4_CsdoUjjxPgBMl_13lzscr_runtimeNtB7_3Env13with_builtinssC_0B7_
FN:894,_RNCNvMs4_CsdoUjjxPgBMl_13lzscr_runtimeNtB7_3Env13with_builtinssD_0B7_
FN:921,_RNCNvMs4_CsdoUjjxPgBMl_13lzscr_runtimeNtB7_3Env13with_builtinssE_0B7_
FN:955,_RNCNvMs4_CsdoUjjxPgBMl_13lzscr_runtimeNtB7_3Env13with_builtinssF_0B7_
FN:994,_RNCNvMs4_CsdoUjjxPgBMl_13lzscr_runtimeNtB7_3Env13with_builtinssG_0B7_
FN:1021,_RNCNvMs4_CsdoUjjxPgBMl_13lzscr_runtimeNtB7_3Env13with_builtinssH_0B7_
FN:1032,_RNCNvMs4_CsdoUjjxPgBMl_13lzscr_runtimeNtB7_3Env13with_builtinssI_0B7_
FN:1048,_RNCNvMs4_CsdoUjjxPgBMl_13lzscr_runtimeNtB7_3Env13with_builtinssJ_0B7_
FN:1060,_RNCNvMs4_CsdoUjjxPgBMl_13lzscr_runtimeNtB7_3Env13with_builtinssK_0B7_
FN:1108,_RNCNvMs4_CsdoUjjxPgBMl_13lzscr_runtimeNtB7_3Env13with_builtinssL_0B7_
FN:1122,_RNCNvMs4_CsdoUjjxPgBMl_13lzscr_runtimeNtB7_3Env13with_builtinssM_0B7_
FN:1133,_RNCNvMs4_CsdoUjjxPgBMl_13lzscr_runtimeNtB7_3Env13with_builtinssN_0B7_
FN:1144,_RNCNvMs4_CsdoUjjxPgBMl_13lzscr_runtimeNtB7_3Env13with_builtinssO_0B7_
FN:1158,_RNCNvMs4_CsdoUjjxPgBMl_13lzscr_runtimeNtB7_3Env13with_builtinssP_0B7_
FN:237,_RNCNvMs4_CsdoUjjxPgBMl_13lzscr_runtimeNtB7_3Env13with_builtinss_0B7_
FN:398,_RNCNvMs4_CsdoUjjxPgBMl_13lzscr_runtimeNtB7_3Env13with_builtinssa_0B7_
FN:411,_RNCNvMs4_CsdoUjjxPgBMl_13lzscr_runtimeNtB7_3Env13with_builtinssb_0B7_
FN:429,_RNCNvMs4_CsdoUjjxPgBMl_13lzscr_runtimeNtB7_3Env13with_builtinssc_0B7_
FN:447,_RNCNvMs4_CsdoUjjxPgBMl_13lzscr_runtimeNtB7_3Env13with_builtinssd_0B7_
FN:465,_RNCNvMs4_CsdoUjjxPgBMl_13lzscr_runtimeNtB7_3Env13with_builtinsse_0B7_
FN:483,_RNCNvMs4_CsdoUjjxPgBMl_13lzscr_runtimeNtB7_3Env13with_builtinssf_0B7_
FN:496,_RNCNvMs4_CsdoUjjxPgBMl_13lzscr_runtimeNtB7_3Env13with_builtinssg_0B7_
FN:509,_RNCNvMs4_CsdoUjjxPgBMl_13lzscr_runtimeNtB7_3Env13with_builtinssh_0B7_
FN:522,_RNCNvMs4_CsdoUjjxPgBMl_13lzscr_runtimeNtB7_3Env13with_builtinssi_0B7_
FN:535,_RNCNvMs4_CsdoUjjxPgBMl_13lzscr_runtimeNtB7_3Env13with_builtinssj_0B7_
FN:547,_RNCNvMs4_CsdoUjjxPgBMl_13lzscr_runtimeNtB7_3Env13with_builtinssk_0B7_
FN:551,_RNCNvMs4_CsdoUjjxPgBMl_13lzscr_runtimeNtB7_3Env13with_builtinssl_0B7_
FN:555,_RNCNvMs4_CsdoUjjxPgBMl_13lzscr_runtimeNtB7_3Env13with_builtinssm_0B7_
FN:564,_RNCNvMs4_CsdoUjjxPgBMl_13lzscr_runtimeNtB7_3Env13with_builtinssn_0B7_
FN:588,_RNCNvMs4_CsdoUjjxPgBMl_13lzscr_runtimeNtB7_3Env13with_builtinsso_0B7_
FN:599,_RNCNvMs4_CsdoUjjxPgBMl_13lzscr_runtimeNtB7_3Env13with_builtinssp_0B7_
FN:613,_RNCNvMs4_CsdoUjjxPgBMl_13lzscr_runtimeNtB7_3Env13with_builtinssq_0B7_
FN:633,_RNCNvMs4_CsdoUjjxPgBMl_13lzscr_runtimeNtB7_3Env13with_builtinssr_0B7_
FN:684,_RNCNvMs4_CsdoUjjxPgBMl_13lzscr_runtimeNtB7_3Env13with_builtinsss_0B7_
FN:698,_RNCNvMs4_CsdoUjjxPgBMl_13lzscr_runtimeNtB7_3Env13with_builtinsst_0B7_
FN:712,_RNCNvMs4_CsdoUjjxPgBMl_13lzscr_runtimeNtB7_3Env13with_builtinssu_0B7_
FN:726,_RNCNvMs4_CsdoUjjxPgBMl_13lzscr_runtimeNtB7_3Env13with_builtinssv_0B7_
FN:740,_RNCNvMs4_CsdoUjjxPgBMl_13lzscr_runtimeNtB7_3Env13with_builtinssw_0B7_
FN:780,_RNCNvMs4_CsdoUjjxPgBMl_13lzscr_runtimeNtB7_3Env13with_builtinssx_0B7_
FN:797,_RNCNvMs4_CsdoUjjxPgBMl_13lzscr_runtimeNtB7_3Env13with_builtinssy_0B7_
FN:813,_RNCNvMs4_CsdoUjjxPgBMl_13lzscr_runtimeNtB7_3Env13with_builtinssz_0B7_
FN:1772,_RNCNvNvCsdoUjjxPgBMl_13lzscr_runtime4eval15print_type_expr0B5_
FN:1654,_RNvCsdoUjjxPgBMl_13lzscr_runtime11apply_value
FN:1366,_RNvCsdoUjjxPgBMl_13lzscr_runtime11eff_println
FN:1621,_RNvCsdoUjjxPgBMl_13lzscr_runtime11force_value
FN:1184,_RNvCsdoUjjxPgBMl_13lzscr_runtime11to_str_like
FN:1487,_RNvCsdoUjjxPgBMl_13lzscr_runtime13match_pattern
FN:1239,_RNvCsdoUjjxPgBMl_13lzscr_runtime19char_literal_string
FN:1746,_RNvCsdoUjjxPgBMl_13lzscr_runtime4eval
FN:1253,_RNvCsdoUjjxPgBMl_13lzscr_runtime7as_bool
FN:1453,_RNvCsdoUjjxPgBMl_13lzscr_runtime7v_equal
FN:1246,_RNvCsdoUjjxPgBMl_13lzscr_runtime8sym_true
FN:1271,_RNvCsdoUjjxPgBMl_13lzscr_runtime9eff_guard
FN:1279,_RNvCsdoUjjxPgBMl_13lzscr_runtime9eff_print
FN:1249,_RNvCsdoUjjxPgBMl_13lzscr_runtime9sym_false
FN:20,_RNvMCsdoUjjxPgBMl_13lzscr_runtimeNtB2_5RtStr10char_count
FN:31,_RNvMCsdoUjjxPgBMl_13lzscr_runtimeNtB2_5RtStr11slice_chars
FN:25,_RNvMCsdoUjjxPgBMl_13lzscr_runtimeNtB2_5RtStr15char_boundaries
FN:17,_RNvMCsdoUjjxPgBMl_13lzscr_runtimeNtB2_5RtStr6eq_str
FN:13,_RNvMCsdoUjjxPgBMl_13lzscr_runtimeNtB2_5RtStr8as_bytes
FN:175,_RNvMs4_CsdoUjjxPgBMl_13lzscr_runtimeNtB5_3Env11symbol_name
FN:201,_RNvMs4_CsdoUjjxPgBMl_13lzscr_runtimeNtB5_3Env13with_builtins
FN:190,_RNvMs4_CsdoUjjxPgBMl_13lzscr_runtimeNtB5_3Env18declare_ctor_arity
FN:151,_RNvMs4_CsdoUjjxPgBMl_13lzscr_runtimeNtB5_3Env3new
FN:1494,_RNvNvCsdoUjjxPgBMl_13lzscr_runtime13match_pattern5merge
FN:1814,_RNvNvCsdoUjjxPgBMl_13lzscr_runtime4eval12collect_vars
FN:1747,_RNvNvCsdoUjjxPgBMl_13lzscr_runtime4eval15print_type_expr
FN:672,_RNvNvMs4_CsdoUjjxPgBMl_13lzscr_runtimeNtB7_3Env13with_builtins11to_sym_bool
FN:758,_RNvNvMs4_CsdoUjjxPgBMl_13lzscr_runtimeNtB7_3Env13with_builtins8get_scan
FN:768,_RNvNvMs4_CsdoUjjxPgBMl_13lzscr_runtimeNtB7_3Env13with_builtins9make_scan
FN:61,_RNvXs0_CsdoUjjxPgBMl_13lzscr_runtimeNtB5_5RtStrNtNtCs66KPHxksi63_4core3cmp9PartialEq2eq
FN:67,_RNvXs2_CsdoUjjxPgBMl_13lzscr_runtimeNtB5_5RtStrINtNtCs66KPHxksi63_4core3cmp9PartialEqNtNtCs8Ty2CzGA6U3_5alloc6string6StringE2eq
FN:72,_RNvXs3_CsdoUjjxPgBMl_13lzscr_runtimeNtB5_5RtStrINtNtCs66KPHxksi63_4core3cmp9PartialEqReE2eq
FN:52,_RNvXs_CsdoUjjxPgBMl_13lzscr_runtimeNtB4_5RtStrNtNtCs66KPHxksi63_4core3fmt7Display3fmt
FN:1654,_RNvCsc9Jj5YprCae_13lzscr_runtime11apply_value
FN:1366,_RNvCsc9Jj5YprCae_13lzscr_runtime11eff_println
FN:1621,_RNvCsc9Jj5YprCae_13lzscr_runtime11force_value
FN:1184,_RNvCsc9Jj5YprCae_13lzscr_runtime11to_str_like
FN:1487,_RNvCsc9Jj5YprCae_13lzscr_runtime13match_pattern
FN:1239,_RNvCsc9Jj5YprCae_13lzscr_runtime19char_literal_string
FN:1746,_RNvCsc9Jj5YprCae_13lzscr_runtime4eval
FN:1253,_RNvCsc9Jj5YprCae_13lzscr_runtime7as_bool
FN:1453,_RNvCsc9Jj5YprCae_13lzscr_runtime7v_equal
FN:1246,_RNvCsc9Jj5YprCae_13lzscr_runtime8sym_true
FN:1271,_RNvCsc9Jj5YprCae_13lzscr_runtime9eff_guard
FN:1279,_RNvCsc9Jj5YprCae_13lzscr_runtime9eff_print
FN:1249,_RNvCsc9Jj5YprCae_13lzscr_runtime9sym_false
FN:20,_RNvMCsc9Jj5YprCae_13lzscr_runtimeNtB2_5RtStr10char_count
FN:31,_RNvMCsc9Jj5YprCae_13lzscr_runtimeNtB2_5RtStr11slice_chars
FN:25,_RNvMCsc9Jj5YprCae_13lzscr_runtimeNtB2_5RtStr15char_boundaries
FN:17,_RNvMCsc9Jj5YprCae_13lzscr_runtimeNtB2_5RtStr6eq_str
FN:13,_RNvMCsc9Jj5YprCae_13lzscr_runtimeNtB2_5RtStr8as_bytes
FN:175,_RNvMs4_Csc9Jj5YprCae_13lzscr_runtimeNtB5_3Env11symbol_name
FN:201,_RNvMs4_Csc9Jj5YprCae_13lzscr_runtimeNtB5_3Env13with_builtins
FN:190,_RNvMs4_Csc9Jj5YprCae_13lzscr_runtimeNtB5_3Env18declare_ctor_arity
FN:151,_RNvMs4_Csc9Jj5YprCae_13lzscr_runtimeNtB5_3Env3new
FN:1494,_RNvNvCsc9Jj5YprCae_13lzscr_runtime13match_pattern5merge
FN:1814,_RNvNvCsc9Jj5YprCae_13lzscr_runtime4eval12collect_vars
FN:1747,_RNvNvCsc9Jj5YprCae_13lzscr_runtime4eval15print_type_expr
FN:672,_RNvNvMs4_Csc9Jj5YprCae_13lzscr_runtimeNtB7_3Env13with_builtins11to_sym_bool
FN:758,_RNvNvMs4_Csc9Jj5YprCae_13lzscr_runtimeNtB7_3Env13with_builtins8get_scan
FN:768,_RNvNvMs4_Csc9Jj5YprCae_13lzscr_runtimeNtB7_3Env13with_builtins9make_scan
FN:61,_RNvXs0_Csc9Jj5YprCae_13lzscr_runtimeNtB5_5RtStrNtNtCs66KPHxksi63_4core3cmp9PartialEq2eq
FN:72,_RNvXs3_Csc9Jj5YprCae_13lzscr_runtimeNtB5_5RtStrINtNtCs66KPHxksi63_4core3cmp9PartialEqReE2eq
FN:52,_RNvXs_Csc9Jj5YprCae_13lzscr_runtimeNtB4_5RtStrNtNtCs66KPHxksi63_4core3fmt7Display3fmt
FN:2205,_RNvNtCsc9Jj5YprCae_13lzscr_runtime5tests8int_expr
FN:2171,_RNvNtCsc9Jj5YprCae_13lzscr_runtime5tests8ref_expr
FN:2208,_RNvNtCsc9Jj5YprCae_13lzscr_runtime5tests8str_expr
FN:2211,_RNvNtCsc9Jj5YprCae_13lzscr_runtime5tests8sym_expr
FN:2340,_RNvNtCsc9Jj5YprCae_13lzscr_runtime5testss_11eval_to_str
FN:2216,_RNvNtCsc9Jj5YprCae_13lzscr_runtime5testss_13ctor_equality
FN:2559,_RNvNtCsc9Jj5YprCae_13lzscr_runtime5testss_17eval_list_literal
FN:2316,_RNvNtCsc9Jj5YprCae_13lzscr_runtime5testss_20eval_lambda_identity
FN:2270,_RNvNtCsc9Jj5YprCae_13lzscr_runtime5testss_20eval_let_group_basic
FN:2571,_RNvNtCsc9Jj5YprCae_13lzscr_runtime5testss_21eval_cons_builds_list
FN:2505,_RNvNtCsc9Jj5YprCae_13lzscr_runtime5testss_22effects_strict_blocked
FN:2427,_RNvNtCsc9Jj5YprCae_13lzscr_runtime5testss_26effects_non_strict_allowed
FN:2176,_RNvNtCsc9Jj5YprCae_13lzscr_runtime5testss_26string_len_and_concat_only
FN:2472,_RNvNtCsc9Jj5YprCae_13lzscr_runtime5testss_27lambda_cons_pattern_matches
FN:2446,_RNvNtCsc9Jj5YprCae_13lzscr_runtime5testss_27lambda_list_pattern_matches
FN:2529,_RNvNtCsc9Jj5YprCae_13lzscr_runtime5testss_30effects_strict_allowed_via_seq
FN:2357,_RNvNtCsc9Jj5YprCae_13lzscr_runtime5testss_30eval_lambda_pattern_ctor_match
FN:2393,_RNvNtCsc9Jj5YprCae_13lzscr_runtime5testss_35eval_lambda_pattern_mismatch_raises
FN:2294,_RNvNtCsc9Jj5YprCae_13lzscr_runtime5testss_8eval_add
FN:2198,_RNCNvNtCsc9Jj5YprCae_13lzscr_runtime5testss_26string_len_and_concat_only0B5_
FN:179,_RINvMs4_Csc9Jj5YprCae_13lzscr_runtimeNtB6_3Env13intern_stringNtNtCs8Ty2CzGA6U3_5alloc6string6StringEB6_
FN:179,_RINvMs4_Csc9Jj5YprCae_13lzscr_runtimeNtB6_3Env13intern_stringRNtNtCs8Ty2CzGA6U3_5alloc6string6StringEB6_
FN:179,_RINvMs4_Csc9Jj5YprCae_13lzscr_runtimeNtB6_3Env13intern_stringReEB6_
FN:163,_RINvMs4_Csc9Jj5YprCae_13lzscr_runtimeNtB6_3Env13intern_symbolRNtNtCs8Ty2CzGA6U3_5alloc6string6StringEB6_
FN:163,_RINvMs4_Csc9Jj5YprCae_13lzscr_runtimeNtB6_3Env13intern_symbolReEB6_
FN:1080,_RNCNCNvMs4_Csc9Jj5YprCae_13lzscr_runtimeNtB9_3Env13with_builtinssK_00B9_
FN:1688,_RNCNvCsc9Jj5YprCae_13lzscr_runtime11apply_value0B3_
FN:1703,_RNCNvCsc9Jj5YprCae_13lzscr_runtime11apply_values0_0B3_
FN:1708,_RNCNvCsc9Jj5YprCae_13lzscr_runtime11apply_values1_0B3_
FN:1692,_RNCNvCsc9Jj5YprCae_13lzscr_runtime11apply_values_0B3_
FN:1404,_RNCNvCsc9Jj5YprCae_13lzscr_runtime11eff_println0B3_
FN:1407,_RNCNvCsc9Jj5YprCae_13lzscr_runtime11eff_printlns0_0B3_
FN:1415,_RNCNvCsc9Jj5YprCae_13lzscr_runtime11eff_printlns1_0B3_
FN:1423,_RNCNvCsc9Jj5YprCae_13lzscr_runtime11eff_printlns2_0B3_
FN:1430,_RNCNvCsc9Jj5YprCae_13lzscr_runtime11eff_printlns3_0B3_
FN:1437,_RNCNvCsc9Jj5YprCae_13lzscr_runtime11eff_printlns_0B3_
FN:1203,_RNCNvCsc9Jj5YprCae_13lzscr_runtime11to_str_like0B3_
FN:1207,_RNCNvCsc9Jj5YprCae_13lzscr_runtime11to_str_likes0_0B3_
FN:1215,_RNCNvCsc9Jj5YprCae_13lzscr_runtime11to_str_likes1_0B3_
FN:1220,_RNCNvCsc9Jj5YprCae_13lzscr_runtime11to_str_likes2_0B3_
FN:1223,_RNCNvCsc9Jj5YprCae_13lzscr_runtime11to_str_likes3_0B3_
FN:1228,_RNCNvCsc9Jj5YprCae_13lzscr_runtime11to_str_likes_0B3_
FN:1890,_RNCNvCsc9Jj5YprCae_13lzscr_runtime4eval0B3_
FN:2012,_RNCNvCsc9Jj5YprCae_13lzscr_runtime4evals0_0B3_
FN:1996,_RNCNvCsc9Jj5YprCae_13lzscr_runtime4evals_0B3_
FN:1466,_RNCNvCsc9Jj5YprCae_13lzscr_runtime7v_equal0B3_
FN:1472,_RNCNvCsc9Jj5YprCae_13lzscr_runtime7v_equals0_0B3_
FN:1478,_RNCNvCsc9Jj5YprCae_13lzscr_runtime7v_equals1_0B3_
FN:1469,_RNCNvCsc9Jj5YprCae_13lzscr_runtime7v_equals_0B3_
FN:1317,_RNCNvCsc9Jj5YprCae_13lzscr_runtime9eff_print0B3_
FN:1320,_RNCNvCsc9Jj5YprCae_13lzscr_runtime9eff_prints0_0B3_
FN:1328,_RNCNvCsc9Jj5YprCae_13lzscr_runtime9eff_prints1_0B3_
FN:1336,_RNCNvCsc9Jj5YprCae_13lzscr_runtime9eff_prints2_0B3_
FN:1343,_RNCNvCsc9Jj5YprCae_13lzscr_runtime9eff_prints3_0B3_
FN:1350,_RNCNvCsc9Jj5YprCae_13lzscr_runtime9eff_prints_0B3_
FN:22,_RNCNvMCsc9Jj5YprCae_13lzscr_runtimeNtB4_5RtStr10char_count0B4_
FN:23,_RNCNvMCsc9Jj5YprCae_13lzscr_runtimeNtB4_5RtStr10char_counts_0B4_
FN:222,_RNCNvMs4_Csc9Jj5YprCae_13lzscr_runtimeNtB7_3Env13with_builtins0B7_
FN:250,_RNCNvMs4_Csc9Jj5YprCae_13lzscr_runtimeNtB7_3Env13with_builtinss0_0B7_
FN:268,_RNCNvMs4_Csc9Jj5YprCae_13lzscr_runtimeNtB7_3Env13with_builtinss1_0B7_
FN:292,_RNCNvMs4_Csc9Jj5YprCae_13lzscr_runtimeNtB7_3Env13with_builtinss2_0B7_
FN:306,_RNCNvMs4_Csc9Jj5YprCae_13lzscr_runtimeNtB7_3Env13with_builtinss3_0B7_
FN:320,_RNCNvMs4_Csc9Jj5YprCae_13lzscr_runtimeNtB7_3Env13with_builtinss4_0B7_
FN:334,_RNCNvMs4_Csc9Jj5YprCae_13lzscr_runtimeNtB7_3Env13with_builtinss5_0B7_
FN:348,_RNCNvMs4_Csc9Jj5YprCae_13lzscr_runtimeNtB7_3Env13with_builtinss6_0B7_
FN:360,_RNCNvMs4_Csc9Jj5YprCae_13lzscr_runtimeNtB7_3Env13with_builtinss7_0B7_
FN:372,_RNCNvMs4_Csc9Jj5YprCae_13lzscr_runtimeNtB7_3Env13with_builtinss8_0B7_
FN:384,_RNCNvMs4_Csc9Jj5YprCae_13lzscr_runtimeNtB7_3Env13with_builtinss9_0B7_
FN:825,_RNCNvMs4_Csc9Jj5YprCae_13lzscr_runtimeNtB7_3Env13with_builtinssA_0B7_
FN:842,_RNCNvMs4_Csc9Jj5YprCae_13lzscr_runtimeNtB7_3Env13with_builtinssB_0B7_
FN:865,_RNCNvMs4_Csc9Jj5YprCae_13lzscr_runtimeNtB7_3Env13with_builtinssC_0B7_
FN:894,_RNCNvMs4_Csc9Jj5YprCae_13lzscr_runtimeNtB7_3Env13with_builtinssD_0B7_
FN:921,_RNCNvMs4_Csc9Jj5YprCae_13lzscr_runtimeNtB7_3Env13with_builtinssE_0B7_
FN:955,_RNCNvMs4_Csc9Jj5YprCae_13lzscr_runtimeNtB7_3Env13with_builtinssF_0B7_
FN:994,_RNCNvMs4_Csc9Jj5YprCae_13lzscr_runtimeNtB7_3Env13with_builtinssG_0B7_
FN:1021,_RNCNvMs4_Csc9Jj5YprCae_13lzscr_runtimeNtB7_3Env13with_builtinssH_0B7_
FN:1032,_RNCNvMs4_Csc9Jj5YprCae_13lzscr_runtimeNtB7_3Env13with_builtinssI_0B7_
FN:1048,_RNCNvMs4_Csc9Jj5YprCae_13lzscr_runtimeNtB7_3Env13with_builtinssJ_0B7_
FN:1060,_RNCNvMs4_Csc9Jj5YprCae_13lzscr_runtimeNtB7_3Env13with_builtinssK_0B7_
FN:1108,_RNCNvMs4_Csc9Jj5YprCae_13lzscr_runtimeNtB7_3Env13with_builtinssL_0B7_
FN:1122,_RNCNvMs4_Csc9Jj5YprCae_13lzscr_runtimeNtB7_3Env13with_builtinssM_0B7_
FN:1133,_RNCNvMs4_Csc9Jj5YprCae_13lzscr_runtimeNtB7_3Env13with_builtinssN_0B7_
FN:1144,_RNCNvMs4_Csc9Jj5YprCae_13lzscr_runtimeNtB7_3Env13with_builtinssO_0B7_
FN:1158,_RNCNvMs4_Csc9Jj5YprCae_13lzscr_runtimeNtB7_3Env13with_builtinssP_0B7_
FN:237,_RNCNvMs4_Csc9Jj5YprCae_13lzscr_runtimeNtB7_3Env13with_builtinss_0B7_
FN:398,_RNCNvMs4_Csc9Jj5YprCae_13lzscr_runtimeNtB7_3Env13with_builtinssa_0B7_
FN:411,_RNCNvMs4_Csc9Jj5YprCae_13lzscr_runtimeNtB7_3Env13with_builtinssb_0B7_
FN:429,_RNCNvMs4_Csc9Jj5YprCae_13lzscr_runtimeNtB7_3Env13with_builtinssc_0B7_
FN:447,_RNCNvMs4_Csc9Jj5YprCae_13lzscr_runtimeNtB7_3Env13with_builtinssd_0B7_
FN:465,_RNCNvMs4_Csc9Jj5YprCae_13lzscr_runtimeNtB7_3Env13with_builtinsse_0B7_
FN:483,_RNCNvMs4_Csc9Jj5YprCae_13lzscr_runtimeNtB7_3Env13with_builtinssf_0B7_
FN:496,_RNCNvMs4_Csc9Jj5YprCae_13lzscr_runtimeNtB7_3Env13with_builtinssg_0B7_
FN:509,_RNCNvMs4_Csc9Jj5YprCae_13lzscr_runtimeNtB7_3Env13with_builtinssh_0B7_
FN:522,_RNCNvMs4_Csc9Jj5YprCae_13lzscr_runtimeNtB7_3Env13with_builtinssi_0B7_
FN:535,_RNCNvMs4_Csc9Jj5YprCae_13lzscr_runtimeNtB7_3Env13with_builtinssj_0B7_
FN:547,_RNCNvMs4_Csc9Jj5YprCae_13lzscr_runtimeNtB7_3Env13with_builtinssk_0B7_
FN:551,_RNCNvMs4_Csc9Jj5YprCae_13lzscr_runtimeNtB7_3Env13with_builtinssl_0B7_
FN:555,_RNCNvMs4_Csc9Jj5YprCae_13lzscr_runtimeNtB7_3Env13with_builtinssm_0B7_
FN:564,_RNCNvMs4_Csc9Jj5YprCae_13lzscr_runtimeNtB7_3Env13with_builtinssn_0B7_
FN:588,_RNCNvMs4_Csc9Jj5YprCae_13lzscr_runtimeNtB7_3Env13with_builtinsso_0B7_
FN:599,_RNCNvMs4_Csc9Jj5YprCae_13lzscr_runtimeNtB7_3Env13with_builtinssp_0B7_
FN:613,_RNCNvMs4_Csc9Jj5YprCae_13lzscr_runtimeNtB7_3Env13with_builtinssq_0B7_
FN:633,_RNCNvMs4_Csc9Jj5YprCae_13lzscr_runtimeNtB7_3Env13with_builtinssr_0B7_
FN:684,_RNCNvMs4_Csc9Jj5YprCae_13lzscr_runtimeNtB7_3Env13with_builtinsss_0B7_
FN:698,_RNCNvMs4_Csc9Jj5YprCae_13lzscr_runtimeNtB7_3Env13with_builtinsst_0B7_
FN:712,_RNCNvMs4_Csc9Jj5YprCae_13lzscr_runtimeNtB7_3Env13with_builtinssu_0B7_
FN:726,_RNCNvMs4_Csc9Jj5YprCae_13lzscr_runtimeNtB7_3Env13with_builtinssv_0B7_
FN:740,_RNCNvMs4_Csc9Jj5YprCae_13lzscr_runtimeNtB7_3Env13with_builtinssw_0B7_
FN:780,_RNCNvMs4_Csc9Jj5YprCae_13lzscr_runtimeNtB7_3Env13with_builtinssx_0B7_
FN:797,_RNCNvMs4_Csc9Jj5YprCae_13lzscr_runtimeNtB7_3Env13with_builtinssy_0B7_
FN:813,_RNCNvMs4_Csc9Jj5YprCae_13lzscr_runtimeNtB7_3Env13with_builtinssz_0B7_
FN:1772,_RNCNvNvCsc9Jj5YprCae_13lzscr_runtime4eval15print_type_expr0B5_
FN:67,_RNvXs2_Csc9Jj5YprCae_13lzscr_runtimeNtB5_5RtStrINtNtCs66KPHxksi63_4core3cmp9PartialEqNtNtCs8Ty2CzGA6U3_5alloc6string6StringE2eq
FNDA:1,_RINvMs4_CsdoUjjxPgBMl_13lzscr_runtimeNtB6_3Env13intern_stringNtNtCs8Ty2CzGA6U3_5alloc6string6StringEB6_
FNDA:5,_RINvMs4_CsdoUjjxPgBMl_13lzscr_runtimeNtB6_3Env13intern_stringRNtNtCs8Ty2CzGA6U3_5alloc6string6StringEB6_
FNDA:5,_RINvMs4_CsdoUjjxPgBMl_13lzscr_runtimeNtB6_3Env13intern_symbolRNtNtCs8Ty2CzGA6U3_5alloc6string6StringEB6_
FNDA:20,_RINvMs4_CsdoUjjxPgBMl_13lzscr_runtimeNtB6_3Env13intern_symbolReEB6_
FNDA:0,_RNCNCNvMs4_CsdoUjjxPgBMl_13lzscr_runtimeNtB9_3Env13with_builtinssK_00B9_
FNDA:0,_RNCNvCsdoUjjxPgBMl_13lzscr_runtime11apply_value0B3_
FNDA:0,_RNCNvCsdoUjjxPgBMl_13lzscr_runtime11apply_values0_0B3_
FNDA:0,_RNCNvCsdoUjjxPgBMl_13lzscr_runtime11apply_values1_0B3_
FNDA:0,_RNCNvCsdoUjjxPgBMl_13lzscr_runtime11apply_values_0B3_
FNDA:0,_RNCNvCsdoUjjxPgBMl_13lzscr_runtime11eff_println0B3_
FNDA:0,_RNCNvCsdoUjjxPgBMl_13lzscr_runtime11eff_printlns0_0B3_
FNDA:0,_RNCNvCsdoUjjxPgBMl_13lzscr_runtime11eff_printlns1_0B3_
FNDA:0,_RNCNvCsdoUjjxPgBMl_13lzscr_runtime11eff_printlns2_0B3_
FNDA:0,_RNCNvCsdoUjjxPgBMl_13lzscr_runtime11eff_printlns3_0B3_
FNDA:0,_RNCNvCsdoUjjxPgBMl_13lzscr_runtime11eff_printlns_0B3_
FNDA:0,_RNCNvCsdoUjjxPgBMl_13lzscr_runtime11to_str_like0B3_
FNDA:0,_RNCNvCsdoUjjxPgBMl_13lzscr_runtime11to_str_likes0_0B3_
FNDA:0,_RNCNvCsdoUjjxPgBMl_13lzscr_runtime11to_str_likes1_0B3_
FNDA:0,_RNCNvCsdoUjjxPgBMl_13lzscr_runtime11to_str_likes2_0B3_
FNDA:0,_RNCNvCsdoUjjxPgBMl_13lzscr_runtime11to_str_likes3_0B3_
FNDA:0,_RNCNvCsdoUjjxPgBMl_13lzscr_runtime11to_str_likes_0B3_
FNDA:0,_RNCNvCsdoUjjxPgBMl_13lzscr_runtime4eval0B3_
FNDA:0,_RNCNvCsdoUjjxPgBMl_13lzscr_runtime4evals0_0B3_
FNDA:2,_RNCNvCsdoUjjxPgBMl_13lzscr_runtime4evals_0B3_
FNDA:0,_RNCNvCsdoUjjxPgBMl_13lzscr_runtime7v_equal0B3_
FNDA:0,_RNCNvCsdoUjjxPgBMl_13lzscr_runtime7v_equals0_0B3_
FNDA:0,_RNCNvCsdoUjjxPgBMl_13lzscr_runtime7v_equals1_0B3_
FNDA:0,_RNCNvCsdoUjjxPgBMl_13lzscr_runtime7v_equals_0B3_
FNDA:0,_RNCNvCsdoUjjxPgBMl_13lzscr_runtime9eff_print0B3_
FNDA:0,_RNCNvCsdoUjjxPgBMl_13lzscr_runtime9eff_prints0_0B3_
FNDA:0,_RNCNvCsdoUjjxPgBMl_13lzscr_runtime9eff_prints1_0B3_
FNDA:0,_RNCNvCsdoUjjxPgBMl_13lzscr_runtime9eff_prints2_0B3_
FNDA:0,_RNCNvCsdoUjjxPgBMl_13lzscr_runtime9eff_prints3_0B3_
FNDA:0,_RNCNvCsdoUjjxPgBMl_13lzscr_runtime9eff_prints_0B3_
FNDA:0,_RNCNvMCsdoUjjxPgBMl_13lzscr_runtimeNtB4_5RtStr10char_count0B4_
FNDA:0,_RNCNvMCsdoUjjxPgBMl_13lzscr_runtimeNtB4_5RtStr10char_counts_0B4_
FNDA:0,_RNCNvMs4_CsdoUjjxPgBMl_13lzscr_runtimeNtB7_3Env13with_builtins0B7_
FNDA:0,_RNCNvMs4_CsdoUjjxPgBMl_13lzscr_runtimeNtB7_3Env13with_builtinss0_0B7_
FNDA:0,_RNCNvMs4_CsdoUjjxPgBMl_13lzscr_runtimeNtB7_3Env13with_builtinss1_0B7_
FNDA:4,_RNCNvMs4_CsdoUjjxPgBMl_13lzscr_runtimeNtB7_3Env13with_builtinss2_0B7_
FNDA:0,_RNCNvMs4_CsdoUjjxPgBMl_13lzscr_runtimeNtB7_3Env13with_builtinss3_0B7_
FNDA:0,_RNCNvMs4_CsdoUjjxPgBMl_13lzscr_runtimeNtB7_3Env13with_builtinss4_0B7_
FNDA:0,_RNCNvMs4_CsdoUjjxPgBMl_13lzscr_runtimeNtB7_3Env13with_builtinss5_0B7_
FNDA:0,_RNCNvMs4_CsdoUjjxPgBMl_13lzscr_runtimeNtB7_3Env13with_builtinss6_0B7_
FNDA:0,_RNCNvMs4_CsdoUjjxPgBMl_13lzscr_runtimeNtB7_3Env13with_builtinss7_0B7_
FNDA:0,_RNCNvMs4_CsdoUjjxPgBMl_13lzscr_runtimeNtB7_3Env13with_builtinss8_0B7_
FNDA:0,_RNCNvMs4_CsdoUjjxPgBMl_13lzscr_runtimeNtB7_3Env13with_builtinss9_0B7_
FNDA:0,_RNCNvMs4_CsdoUjjxPgBMl_13lzscr_runtimeNtB7_3Env13with_builtinssA_0B7_
FNDA:0,_RNCNvMs4_CsdoUjjxPgBMl_13lzscr_runtimeNtB7_3Env13with_builtinssB_0B7_
FNDA:0,_RNCNvMs4_CsdoUjjxPgBMl_13lzscr_runtimeNtB7_3Env13with_builtinssC_0B7_
FNDA:0,_RNCNvMs4_CsdoUjjxPgBMl_13lzscr_runtimeNtB7_3Env13with_builtinssD_0B7_
FNDA:0,_RNCNvMs4_CsdoUjjxPgBMl_13lzscr_runtimeNtB7_3Env13with_builtinssE_0B7_
FNDA:0,_RNCNvMs4_CsdoUjjxPgBMl_13lzscr_runtimeNtB7_3Env13with_builtinssF_0B7_
FNDA:0,_RNCNvMs4_CsdoUjjxPgBMl_13lzscr_runtimeNtB7_3Env13with_builtinssG_0B7_
FNDA:0,_RNCNvMs4_CsdoUjjxPgBMl_13lzscr_runtimeNtB7_3Env13with_builtinssH_0B7_
FNDA:0,_RNCNvMs4_CsdoUjjxPgBMl_13lzscr_runtimeNtB7_3Env13with_builtinssI_0B7_
FNDA:0,_RNCNvMs4_CsdoUjjxPgBMl_13lzscr_runtimeNtB7_3Env13with_builtinssJ_0B7_
FNDA:0,_RNCNvMs4_CsdoUjjxPgBMl_13lzscr_runtimeNtB7_3Env13with_builtinssK_0B7_
FNDA:0,_RNCNvMs4_CsdoUjjxPgBMl_13lzscr_runtimeNtB7_3Env13with_builtinssL_0B7_
FNDA:0,_RNCNvMs4_CsdoUjjxPgBMl_13lzscr_runtimeNtB7_3Env13with_builtinssM_0B7_
FNDA:0,_RNCNvMs4_CsdoUjjxPgBMl_13lzscr_runtimeNtB7_3Env13with_builtinssN_0B7_
FNDA:0,_RNCNvMs4_CsdoUjjxPgBMl_13lzscr_runtimeNtB7_3Env13with_builtinssO_0B7_
FNDA:0,_RNCNvMs4_CsdoUjjxPgBMl_13lzscr_runtimeNtB7_3Env13with_builtinssP_0B7_
FNDA:1,_RNCNvMs4_CsdoUjjxPgBMl_13lzscr_runtimeNtB7_3Env13with_builtinss_0B7_
FNDA:0,_RNCNvMs4_CsdoUjjxPgBMl_13lzscr_runtimeNtB7_3Env13with_builtinssa_0B7_
FNDA:0,_RNCNvMs4_CsdoUjjxPgBMl_13lzscr_runtimeNtB7_3Env13with_builtinssb_0B7_
FNDA:0,_RNCNvMs4_CsdoUjjxPgBMl_13lzscr_runtimeNtB7_3Env13with_builtinssc_0B7_
FNDA:0,_RNCNvMs4_CsdoUjjxPgBMl_13lzscr_runtimeNtB7_3Env13with_builtinssd_0B7_
FNDA:0,_RNCNvMs4_CsdoUjjxPgBMl_13lzscr_runtimeNtB7_3Env13with_builtinsse_0B7_
FNDA:0,_RNCNvMs4_CsdoUjjxPgBMl_13lzscr_runtimeNtB7_3Env13with_builtinssf_0B7_
FNDA:0,_RNCNvMs4_CsdoUjjxPgBMl_13lzscr_runtimeNtB7_3Env13with_builtinssg_0B7_
FNDA:0,_RNCNvMs4_CsdoUjjxPgBMl_13lzscr_runtimeNtB7_3Env13with_builtinssh_0B7_
FNDA:0,_RNCNvMs4_CsdoUjjxPgBMl_13lzscr_runtimeNtB7_3Env13with_builtinssi_0B7_
FNDA:0,_RNCNvMs4_CsdoUjjxPgBMl_13lzscr_runtimeNtB7_3Env13with_builtinssj_0B7_
FNDA:0,_RNCNvMs4_CsdoUjjxPgBMl_13lzscr_runtimeNtB7_3Env13with_builtinssk_0B7_
FNDA:0,_RNCNvMs4_CsdoUjjxPgBMl_13lzscr_runtimeNtB7_3Env13with_builtinssl_0B7_
FNDA:0,_RNCNvMs4_CsdoUjjxPgBMl_13lzscr_runtimeNtB7_3Env13with_builtinssm_0B7_
FNDA:3,_RNCNvMs4_CsdoUjjxPgBMl_13lzscr_runtimeNtB7_3Env13with_builtinssn_0B7_
FNDA:0,_RNCNvMs4_CsdoUjjxPgBMl_13lzscr_runtimeNtB7_3Env13with_builtinsso_0B7_
FNDA:0,_RNCNvMs4_CsdoUjjxPgBMl_13lzscr_runtimeNtB7_3Env13with_builtinssp_0B7_
FNDA:0,_RNCNvMs4_CsdoUjjxPgBMl_13lzscr_runtimeNtB7_3Env13with_builtinssq_0B7_
FNDA:0,_RNCNvMs4_CsdoUjjxPgBMl_13lzscr_runtimeNtB7_3Env13with_builtinssr_0B7_
FNDA:0,_RNCNvMs4_CsdoUjjxPgBMl_13lzscr_runtimeNtB7_3Env13with_builtinsss_0B7_
FNDA:0,_RNCNvMs4_CsdoUjjxPgBMl_13lzscr_runtimeNtB7_3Env13with_builtinsst_0B7_
FNDA:0,_RNCNvMs4_CsdoUjjxPgBMl_13lzscr_runtimeNtB7_3Env13with_builtinssu_0B7_
FNDA:0,_RNCNvMs4_CsdoUjjxPgBMl_13lzscr_runtimeNtB7_3Env13with_builtinssv_0B7_
FNDA:0,_RNCNvMs4_CsdoUjjxPgBMl_13lzscr_runtimeNtB7_3Env13with_builtinssw_0B7_
FNDA:0,_RNCNvMs4_CsdoUjjxPgBMl_13lzscr_runtimeNtB7_3Env13with_builtinssx_0B7_
FNDA:0,_RNCNvMs4_CsdoUjjxPgBMl_13lzscr_runtimeNtB7_3Env13with_builtinssy_0B7_
FNDA:0,_RNCNvMs4_CsdoUjjxPgBMl_13lzscr_runtimeNtB7_3Env13with_builtinssz_0B7_
FNDA:0,_RNCNvNvCsdoUjjxPgBMl_13lzscr_runtime4eval15print_type_expr0B5_
FNDA:4,_RNvCsdoUjjxPgBMl_13lzscr_runtime11apply_value
FNDA:3,_RNvCsdoUjjxPgBMl_13lzscr_runtime11eff_println
FNDA:20,_RNvCsdoUjjxPgBMl_13lzscr_runtime11force_value
FNDA:1,_RNvCsdoUjjxPgBMl_13lzscr_runtime11to_str_like
FNDA:5,_RNvCsdoUjjxPgBMl_13lzscr_runtime13match_pattern
FNDA:0,_RNvCsdoUjjxPgBMl_13lzscr_runtime19char_literal_string
FNDA:59,_RNvCsdoUjjxPgBMl_13lzscr_runtime4eval
FNDA:0,_RNvCsdoUjjxPgBMl_13lzscr_runtime7as_bool
FNDA:0,_RNvCsdoUjjxPgBMl_13lzscr_runtime7v_equal
FNDA:0,_RNvCsdoUjjxPgBMl_13lzscr_runtime8sym_true
FNDA:3,_RNvCsdoUjjxPgBMl_13lzscr_runtime9eff_guard
FNDA:0,_RNvCsdoUjjxPgBMl_13lzscr_runtime9eff_print
FNDA:0,_RNvCsdoUjjxPgBMl_13lzscr_runtime9sym_false
FNDA:0,_RNvMCsdoUjjxPgBMl_13lzscr_runtimeNtB2_5RtStr10char_count
FNDA:0,_RNvMCsdoUjjxPgBMl_13lzscr_runtimeNtB2_5RtStr11slice_chars
FNDA:0,_RNvMCsdoUjjxPgBMl_13lzscr_runtimeNtB2_5RtStr15char_boundaries
FNDA:0,_RNvMCsdoUjjxPgBMl_13lzscr_runtimeNtB2_5RtStr6eq_str
FNDA:4,_RNvMCsdoUjjxPgBMl_13lzscr_runtimeNtB2_5RtStr8as_bytes
FNDA:5,_RNvMs4_CsdoUjjxPgBMl_13lzscr_runtimeNtB5_3Env11symbol_name
FNDA:4,_RNvMs4_CsdoUjjxPgBMl_13lzscr_runtimeNtB5_3Env13with_builtins
FNDA:24,_RNvMs4_CsdoUjjxPgBMl_13lzscr_runtimeNtB5_3Env18declare_ctor_arity
FNDA:4,_RNvMs4_CsdoUjjxPgBMl_13lzscr_runtimeNtB5_3Env3new
FNDA:0,_RNvNvCsdoUjjxPgBMl_13lzscr_runtime13match_pattern5merge
FNDA:1,_RNvNvCsdoUjjxPgBMl_13lzscr_runtime4eval12collect_vars
FNDA:0,_RNvNvCsdoUjjxPgBMl_13lzscr_runtime4eval15print_type_expr
FNDA:0,_RNvNvMs4_CsdoUjjxPgBMl_13lzscr_runtimeNtB7_3Env13with_builtins11to_sym_bool
FNDA:0,_RNvNvMs4_CsdoUjjxPgBMl_13lzscr_runtimeNtB7_3Env13with_builtins8get_scan
FNDA:0,_RNvNvMs4_CsdoUjjxPgBMl_13lzscr_runtimeNtB7_3Env13with_builtins9make_scan
FNDA:0,_RNvXs0_CsdoUjjxPgBMl_13lzscr_runtimeNtB5_5RtStrNtNtCs66KPHxksi63_4core3cmp9PartialEq2eq
FNDA:0,_RNvXs2_CsdoUjjxPgBMl_13lzscr_runtimeNtB5_5RtStrINtNtCs66KPHxksi63_4core3cmp9PartialEqNtNtCs8Ty2CzGA6U3_5alloc6string6StringE2eq
FNDA:0,_RNvXs3_CsdoUjjxPgBMl_13lzscr_runtimeNtB5_5RtStrINtNtCs66KPHxksi63_4core3cmp9PartialEqReE2eq
FNDA:4,_RNvXs_CsdoUjjxPgBMl_13lzscr_runtimeNtB4_5RtStrNtNtCs66KPHxksi63_4core3fmt7Display3fmt
FNDA:3,_RNvCsc9Jj5YprCae_13lzscr_runtime11apply_value
FNDA:3,_RNvCsc9Jj5YprCae_13lzscr_runtime11eff_println
FNDA:28,_RNvCsc9Jj5YprCae_13lzscr_runtime11force_value
FNDA:1,_RNvCsc9Jj5YprCae_13lzscr_runtime11to_str_like
FNDA:12,_RNvCsc9Jj5YprCae_13lzscr_runtime13match_pattern
FNDA:0,_RNvCsc9Jj5YprCae_13lzscr_runtime19char_literal_string
FNDA:89,_RNvCsc9Jj5YprCae_13lzscr_runtime4eval
FNDA:0,_RNvCsc9Jj5YprCae_13lzscr_runtime7as_bool
FNDA:4,_RNvCsc9Jj5YprCae_13lzscr_runtime7v_equal
FNDA:1,_RNvCsc9Jj5YprCae_13lzscr_runtime8sym_true
FNDA:3,_RNvCsc9Jj5YprCae_13lzscr_runtime9eff_guard
FNDA:0,_RNvCsc9Jj5YprCae_13lzscr_runtime9eff_print
FNDA:1,_RNvCsc9Jj5YprCae_13lzscr_runtime9sym_false
FNDA:1,_RNvMCsc9Jj5YprCae_13lzscr_runtimeNtB2_5RtStr10char_count
FNDA:0,_RNvMCsc9Jj5YprCae_13lzscr_runtimeNtB2_5RtStr11slice_chars
FNDA:0,_RNvMCsc9Jj5YprCae_13lzscr_runtimeNtB2_5RtStr15char_boundaries
FNDA:0,_RNvMCsc9Jj5YprCae_13lzscr_runtimeNtB2_5RtStr6eq_str
FNDA:7,_RNvMCsc9Jj5YprCae_13lzscr_runtimeNtB2_5RtStr8as_bytes
FNDA:10,_RNvMs4_Csc9Jj5YprCae_13lzscr_runtimeNtB5_3Env11symbol_name
FNDA:16,_RNvMs4_Csc9Jj5YprCae_13lzscr_runtimeNtB5_3Env13with_builtins
FNDA:96,_RNvMs4_Csc9Jj5YprCae_13lzscr_runtimeNtB5_3Env18declare_ctor_arity
FNDA:16,_RNvMs4_Csc9Jj5YprCae_13lzscr_runtimeNtB5_3Env3new
FNDA:6,_RNvNvCsc9Jj5YprCae_13lzscr_runtime13match_pattern5merge
FNDA:2,_RNvNvCsc9Jj5YprCae_13lzscr_runtime4eval12collect_vars
FNDA:0,_RNvNvCsc9Jj5YprCae_13lzscr_runtime4eval15print_type_expr
FNDA:0,_RNvNvMs4_Csc9Jj5YprCae_13lzscr_runtimeNtB7_3Env13with_builtins11to_sym_bool
FNDA:0,_RNvNvMs4_Csc9Jj5YprCae_13lzscr_runtimeNtB7_3Env13with_builtins8get_scan
FNDA:0,_RNvNvMs4_Csc9Jj5YprCae_13lzscr_runtimeNtB7_3Env13with_builtins9make_scan
FNDA:0,_RNvXs0_Csc9Jj5YprCae_13lzscr_runtimeNtB5_5RtStrNtNtCs66KPHxksi63_4core3cmp9PartialEq2eq
FNDA:1,_RNvXs3_Csc9Jj5YprCae_13lzscr_runtimeNtB5_5RtStrINtNtCs66KPHxksi63_4core3cmp9PartialEqReE2eq
FNDA:5,_RNvXs_Csc9Jj5YprCae_13lzscr_runtimeNtB4_5RtStrNtNtCs66KPHxksi63_4core3fmt7Display3fmt
FNDA:21,_RNvNtCsc9Jj5YprCae_13lzscr_runtime5tests8int_expr
FNDA:9,_RNvNtCsc9Jj5YprCae_13lzscr_runtime5tests8ref_expr
FNDA:3,_RNvNtCsc9Jj5YprCae_13lzscr_runtime5tests8str_expr
FNDA:6,_RNvNtCsc9Jj5YprCae_13lzscr_runtime5tests8sym_expr
FNDA:1,_RNvNtCsc9Jj5YprCae_13lzscr_runtime5testss_11eval_to_str
FNDA:1,_RNvNtCsc9Jj5YprCae_13lzscr_runtime5testss_13ctor_equality
FNDA:1,_RNvNtCsc9Jj5YprCae_13lzscr_runtime5testss_17eval_list_literal
FNDA:1,_RNvNtCsc9Jj5YprCae_13lzscr_runtime5testss_20eval_lambda_identity
FNDA:1,_RNvNtCsc9Jj5YprCae_13lzscr_runtime5testss_20eval_let_group_basic
FNDA:1,_RNvNtCsc9Jj5YprCae_13lzscr_runtime5testss_21eval_cons_builds_list
FNDA:1,_RNvNtCsc9Jj5YprCae_13lzscr_runtime5testss_22effects_strict_blocked
FNDA:1,_RNvNtCsc9Jj5YprCae_13lzscr_runtime5testss_26effects_non_strict_allowed
FNDA:1,_RNvNtCsc9Jj5YprCae_13lzscr_runtime5testss_26string_len_and_concat_only
FNDA:1,_RNvNtCsc9Jj5YprCae_13lzscr_runtime5testss_27lambda_cons_pattern_matches
FNDA:1,_RNvNtCsc9Jj5YprCae_13lzscr_runtime5testss_27lambda_list_pattern_matches
FNDA:1,_RNvNtCsc9Jj5YprCae_13lzscr_runtime5testss_30effects_strict_allowed_via_seq
FNDA:1,_RNvNtCsc9Jj5YprCae_13lzscr_runtime5testss_30eval_lambda_pattern_ctor_match
FNDA:1,_RNvNtCsc9Jj5YprCae_13lzscr_runtime5testss_35eval_lambda_pattern_mismatch_raises
FNDA:1,_RNvNtCsc9Jj5YprCae_13lzscr_runtime5testss_8eval_add
FNDA:1,_RNCNvNtCsc9Jj5YprCae_13lzscr_runtime5testss_26string_len_and_concat_only0B5_
FNDA:2,_RINvMs4_Csc9Jj5YprCae_13lzscr_runtimeNtB6_3Env13intern_stringNtNtCs8Ty2CzGA6U3_5alloc6string6StringEB6_
FNDA:3,_RINvMs4_Csc9Jj5YprCae_13lzscr_runtimeNtB6_3Env13intern_stringRNtNtCs8Ty2CzGA6U3_5alloc6string6StringEB6_
FNDA:3,_RINvMs4_Csc9Jj5YprCae_13lzscr_runtimeNtB6_3Env13intern_stringReEB6_
FNDA:9,_RINvMs4_Csc9Jj5YprCae_13lzscr_runtimeNtB6_3Env13intern_symbolRNtNtCs8Ty2CzGA6U3_5alloc6string6StringEB6_
FNDA:82,_RINvMs4_Csc9Jj5YprCae_13lzscr_runtimeNtB6_3Env13intern_symbolReEB6_
FNDA:0,_RNCNCNvMs4_Csc9Jj5YprCae_13lzscr_runtimeNtB9_3Env13with_builtinssK_00B9_
FNDA:0,_RNCNvCsc9Jj5YprCae_13lzscr_runtime11apply_value0B3_
FNDA:0,_RNCNvCsc9Jj5YprCae_13lzscr_runtime11apply_values0_0B3_
FNDA:0,_RNCNvCsc9Jj5YprCae_13lzscr_runtime11apply_values1_0B3_
FNDA:0,_RNCNvCsc9Jj5YprCae_13lzscr_runtime11apply_values_0B3_
FNDA:0,_RNCNvCsc9Jj5YprCae_13lzscr_runtime11eff_println0B3_
FNDA:0,_RNCNvCsc9Jj5YprCae_13lzscr_runtime11eff_printlns0_0B3_
FNDA:0,_RNCNvCsc9Jj5YprCae_13lzscr_runtime11eff_printlns1_0B3_
FNDA:0,_RNCNvCsc9Jj5YprCae_13lzscr_runtime11eff_printlns2_0B3_
FNDA:0,_RNCNvCsc9Jj5YprCae_13lzscr_runtime11eff_printlns3_0B3_
FNDA:0,_RNCNvCsc9Jj5YprCae_13lzscr_runtime11eff_printlns_0B3_
FNDA:0,_RNCNvCsc9Jj5YprCae_13lzscr_runtime11to_str_like0B3_
FNDA:0,_RNCNvCsc9Jj5YprCae_13lzscr_runtime11to_str_likes0_0B3_
FNDA:0,_RNCNvCsc9Jj5YprCae_13lzscr_runtime11to_str_likes1_0B3_
FNDA:0,_RNCNvCsc9Jj5YprCae_13lzscr_runtime11to_str_likes2_0B3_
FNDA:0,_RNCNvCsc9Jj5YprCae_13lzscr_runtime11to_str_likes3_0B3_
FNDA:0,_RNCNvCsc9Jj5YprCae_13lzscr_runtime11to_str_likes_0B3_
FNDA:0,_RNCNvCsc9Jj5YprCae_13lzscr_runtime4eval0B3_
FNDA:3,_RNCNvCsc9Jj5YprCae_13lzscr_runtime4evals0_0B3_
FNDA:5,_RNCNvCsc9Jj5YprCae_13lzscr_runtime4evals_0B3_
FNDA:2,_RNCNvCsc9Jj5YprCae_13lzscr_runtime7v_equal0B3_
FNDA:0,_RNCNvCsc9Jj5YprCae_13lzscr_runtime7v_equals0_0B3_
FNDA:0,_RNCNvCsc9Jj5YprCae_13lzscr_runtime7v_equals1_0B3_
FNDA:0,_RNCNvCsc9Jj5YprCae_13lzscr_runtime7v_equals_0B3_
FNDA:0,_RNCNvCsc9Jj5YprCae_13lzscr_runtime9eff_print0B3_
FNDA:0,_RNCNvCsc9Jj5YprCae_13lzscr_runtime9eff_prints0_0B3_
FNDA:0,_RNCNvCsc9Jj5YprCae_13lzscr_runtime9eff_prints1_0B3_
FNDA:0,_RNCNvCsc9Jj5YprCae_13lzscr_runtime9eff_prints2_0B3_
FNDA:0,_RNCNvCsc9Jj5YprCae_13lzscr_runtime9eff_prints3_0B3_
FNDA:0,_RNCNvCsc9Jj5YprCae_13lzscr_runtime9eff_prints_0B3_
FNDA:1,_RNCNvMCsc9Jj5YprCae_13lzscr_runtimeNtB4_5RtStr10char_count0B4_
FNDA:0,_RNCNvMCsc9Jj5YprCae_13lzscr_runtimeNtB4_5RtStr10char_counts_0B4_
FNDA:0,_RNCNvMs4_Csc9Jj5YprCae_13lzscr_runtimeNtB7_3Env13with_builtins0B7_
FNDA:1,_RNCNvMs4_Csc9Jj5YprCae_13lzscr_runtimeNtB7_3Env13with_builtinss0_0B7_
FNDA:0,_RNCNvMs4_Csc9Jj5YprCae_13lzscr_runtimeNtB7_3Env13with_builtinss1_0B7_
FNDA:1,_RNCNvMs4_Csc9Jj5YprCae_13lzscr_runtimeNtB7_3Env13with_builtinss2_0B7_
FNDA:0,_RNCNvMs4_Csc9Jj5YprCae_13lzscr_runtimeNtB7_3Env13with_builtinss3_0B7_
FNDA:0,_RNCNvMs4_Csc9Jj5YprCae_13lzscr_runtimeNtB7_3Env13with_builtinss4_0B7_
FNDA:0,_RNCNvMs4_Csc9Jj5YprCae_13lzscr_runtimeNtB7_3Env13with_builtinss5_0B7_
FNDA:0,_RNCNvMs4_Csc9Jj5YprCae_13lzscr_runtimeNtB7_3Env13with_builtinss6_0B7_
FNDA:0,_RNCNvMs4_Csc9Jj5YprCae_13lzscr_runtimeNtB7_3Env13with_builtinss7_0B7_
FNDA:0,_RNCNvMs4_Csc9Jj5YprCae_13lzscr_runtimeNtB7_3Env13with_builtinss8_0B7_
FNDA:0,_RNCNvMs4_Csc9Jj5YprCae_13lzscr_runtimeNtB7_3Env13with_builtinss9_0B7_
FNDA:0,_RNCNvMs4_Csc9Jj5YprCae_13lzscr_runtimeNtB7_3Env13with_builtinssA_0B7_
FNDA:0,_RNCNvMs4_Csc9Jj5YprCae_13lzscr_runtimeNtB7_3Env13with_builtinssB_0B7_
FNDA:0,_RNCNvMs4_Csc9Jj5YprCae_13lzscr_runtimeNtB7_3Env13with_builtinssC_0B7_
FNDA:0,_RNCNvMs4_Csc9Jj5YprCae_13lzscr_runtimeNtB7_3Env13with_builtinssD_0B7_
FNDA:0,_RNCNvMs4_Csc9Jj5YprCae_13lzscr_runtimeNtB7_3Env13with_builtinssE_0B7_
FNDA:0,_RNCNvMs4_Csc9Jj5YprCae_13lzscr_runtimeNtB7_3Env13with_builtinssF_0B7_
FNDA:0,_RNCNvMs4_Csc9Jj5YprCae_13lzscr_runtimeNtB7_3Env13with_builtinssG_0B7_
FNDA:0,_RNCNvMs4_Csc9Jj5YprCae_13lzscr_runtimeNtB7_3Env13with_builtinssH_0B7_
FNDA:0,_RNCNvMs4_Csc9Jj5YprCae_13lzscr_runtimeNtB7_3Env13with_builtinssI_0B7_
FNDA:0,_RNCNvMs4_Csc9Jj5YprCae_13lzscr_runtimeNtB7_3Env13with_builtinssJ_0B7_
FNDA:0,_RNCNvMs4_Csc9Jj5YprCae_13lzscr_runtimeNtB7_3Env13with_builtinssK_0B7_
FNDA:0,_RNCNvMs4_Csc9Jj5YprCae_13lzscr_runtimeNtB7_3Env13with_builtinssL_0B7_
FNDA:0,_RNCNvMs4_Csc9Jj5YprCae_13lzscr_runtimeNtB7_3Env13with_builtinssM_0B7_
FNDA:0,_RNCNvMs4_Csc9Jj5YprCae_13lzscr_runtimeNtB7_3Env13with_builtinssN_0B7_
FNDA:0,_RNCNvMs4_Csc9Jj5YprCae_13lzscr_runtimeNtB7_3Env13with_builtinssO_0B7_
FNDA:0,_RNCNvMs4_Csc9Jj5YprCae_13lzscr_runtimeNtB7_3Env13with_builtinssP_0B7_
FNDA:1,_RNCNvMs4_Csc9Jj5YprCae_13lzscr_runtimeNtB7_3Env13with_builtinss_0B7_
FNDA:2,_RNCNvMs4_Csc9Jj5YprCae_13lzscr_runtimeNtB7_3Env13with_builtinssa_0B7_
FNDA:0,_RNCNvMs4_Csc9Jj5YprCae_13lzscr_runtimeNtB7_3Env13with_builtinssb_0B7_
FNDA:0,_RNCNvMs4_Csc9Jj5YprCae_13lzscr_runtimeNtB7_3Env13with_builtinssc_0B7_
FNDA:0,_RNCNvMs4_Csc9Jj5YprCae_13lzscr_runtimeNtB7_3Env13with_builtinssd_0B7_
FNDA:0,_RNCNvMs4_Csc9Jj5YprCae_13lzscr_runtimeNtB7_3Env13with_builtinsse_0B7_
FNDA:0,_RNCNvMs4_Csc9Jj5YprCae_13lzscr_runtimeNtB7_3Env13with_builtinssf_0B7_
FNDA:0,_RNCNvMs4_Csc9Jj5YprCae_13lzscr_runtimeNtB7_3Env13with_builtinssg_0B7_
FNDA:0,_RNCNvMs4_Csc9Jj5YprCae_13lzscr_runtimeNtB7_3Env13with_builtinssh_0B7_
FNDA:0,_RNCNvMs4_Csc9Jj5YprCae_13lzscr_runtimeNtB7_3Env13with_builtinssi_0B7_
FNDA:0,_RNCNvMs4_Csc9Jj5YprCae_13lzscr_runtimeNtB7_3Env13with_builtinssj_0B7_
FNDA:0,_RNCNvMs4_Csc9Jj5YprCae_13lzscr_runtimeNtB7_3Env13with_builtinssk_0B7_
FNDA:0,_RNCNvMs4_Csc9Jj5YprCae_13lzscr_runtimeNtB7_3Env13with_builtinssl_0B7_
FNDA:0,_RNCNvMs4_Csc9Jj5YprCae_13lzscr_runtimeNtB7_3Env13with_builtinssm_0B7_
FNDA:3,_RNCNvMs4_Csc9Jj5YprCae_13lzscr_runtimeNtB7_3Env13with_builtinssn_0B7_
FNDA:1,_RNCNvMs4_Csc9Jj5YprCae_13lzscr_runtimeNtB7_3Env13with_builtinsso_0B7_
FNDA:1,_RNCNvMs4_Csc9Jj5YprCae_13lzscr_runtimeNtB7_3Env13with_builtinssp_0B7_
FNDA:0,_RNCNvMs4_Csc9Jj5YprCae_13lzscr_runtimeNtB7_3Env13with_builtinssq_0B7_
FNDA:0,_RNCNvMs4_Csc9Jj5YprCae_13lzscr_runtimeNtB7_3Env13with_builtinssr_0B7_
FNDA:0,_RNCNvMs4_Csc9Jj5YprCae_13lzscr_runtimeNtB7_3Env13with_builtinsss_0B7_
FNDA:0,_RNCNvMs4_Csc9Jj5YprCae_13lzscr_runtimeNtB7_3Env13with_builtinsst_0B7_
FNDA:0,_RNCNvMs4_Csc9Jj5YprCae_13lzscr_runtimeNtB7_3Env13with_builtinssu_0B7_
FNDA:0,_RNCNvMs4_Csc9Jj5YprCae_13lzscr_runtimeNtB7_3Env13with_builtinssv_0B7_
FNDA:0,_RNCNvMs4_Csc9Jj5YprCae_13lzscr_runtimeNtB7_3Env13with_builtinssw_0B7_
FNDA:0,_RNCNvMs4_Csc9Jj5YprCae_13lzscr_runtimeNtB7_3Env13with_builtinssx_0B7_
FNDA:0,_RNCNvMs4_Csc9Jj5YprCae_13lzscr_runtimeNtB7_3Env13with_builtinssy_0B7_
FNDA:0,_RNCNvMs4_Csc9Jj5YprCae_13lzscr_runtimeNtB7_3Env13with_builtinssz_0B7_
FNDA:0,_RNCNvNvCsc9Jj5YprCae_13lzscr_runtime4eval15print_type_expr0B5_
FNDA:0,_RNvXs2_Csc9Jj5YprCae_13lzscr_runtimeNtB5_5RtStrINtNtCs66KPHxksi63_4core3cmp9PartialEqNtNtCs8Ty2CzGA6U3_5alloc6string6StringE2eq
FNF:141
FNH:53
DA:13,11
DA:14,11
DA:15,11
DA:17,0
DA:18,0
DA:19,0
DA:20,1
DA:21,1
DA:22,1
DA:23,1
DA:24,1
DA:25,0
DA:27,0
DA:28,0
DA:29,0
DA:30,0
DA:31,0
DA:32,0
DA:33,0
DA:34,0
DA:35,0
DA:36,0
DA:37,0
DA:38,0
DA:39,0
DA:40,0
DA:41,0
DA:42,0
DA:43,0
DA:44,0
DA:45,0
DA:46,0
DA:47,0
DA:48,0
DA:52,9
DA:53,9
DA:54,9
DA:55,0
DA:57,9
DA:61,0
DA:62,0
DA:63,0
DA:67,0
DA:68,0
DA:69,0
DA:72,1
DA:73,1
DA:74,1
DA:151,20
DA:152,20
DA:153,20
DA:154,20
DA:155,20
DA:156,20
DA:157,20
DA:158,20
DA:159,20
DA:160,20
DA:161,20
DA:163,116
DA:164,116
DA:165,116
DA:166,11
DA:167,105
DA:168,105
DA:169,105
DA:170,105
DA:171,105
DA:172,105
DA:173,116
DA:175,15
DA:176,15
DA:177,15
DA:179,14
DA:180,14
DA:181,14
DA:182,2
DA:183,12
DA:184,12
DA:185,12
DA:186,12
DA:187,12
DA:188,14
DA:190,120
DA:192,120
DA:193,120
DA:194,120
DA:195,40
DA:196,80
DA:197,80
DA:198,80
DA:199,120
DA:201,20
DA:202,20
DA:205,20
DA:206,20
DA:207,20
DA:208,20
DA:210,20
DA:211,20
DA:212,20
DA:213,20
DA:214,20
DA:217,20
DA:218,20
DA:221,20
DA:222,0
DA:223,0
DA:224,0
DA:225,0
DA:226,0
DA:229,20
DA:232,20
DA:233,20
DA:236,20
DA:237,2
DA:238,2
DA:239,2
DA:240,2
DA:245,20
DA:246,20
DA:249,20
DA:250,1
DA:251,1
DA:252,1
DA:253,1
DA:254,1
DA:255,1
DA:257,0
DA:258,1
DA:263,20
DA:264,20
DA:267,20
DA:268,0
DA:269,0
DA:270,0
DA:271,0
DA:272,0
DA:273,0
DA:274,0
DA:275,0
DA:276,0
DA:278,0
DA:281,0
DA:283,0
DA:287,20
DA:288,20
DA:291,20
DA:292,5
DA:293,5
DA:294,0
DA:295,0
DA:296,5
DA:301,20
DA:302,20
DA:305,20
DA:306,0
DA:307,0
DA:308,0
DA:309,0
DA:310,0
DA:315,20
DA:316,20
DA:319,20
DA:320,0
DA:321,0
DA:322,0
DA:323,0
DA:324,0
DA:329,20
DA:330,20
DA:333,20
DA:334,0
DA:335,0
DA:336,0
DA:337,0
DA:338,0
DA:343,20
DA:344,20
DA:347,20
DA:348,0
DA:349,0
DA:350,0
DA:351,0
DA:355,20
DA:356,20
DA:359,20
DA:360,0
DA:361,0
DA:362,0
DA:363,0
DA:367,20
DA:368,20
DA:371,20
DA:372,0
DA:373,0
DA:374,0
DA:375,0
DA:379,20
DA:380,20
DA:383,20
DA:384,0
DA:385,0
DA:386,0
DA:387,0
DA:388,0
DA:393,20
DA:394,20
DA:397,20
DA:398,2
DA:399,2
DA:400,2
DA:401,2
DA:406,20
DA:407,20
DA:410,20
DA:411,0
DA:412,0
DA:413,0
DA:415,0
DA:416,0
DA:418,0
DA:419,0
DA:424,20
DA:425,20
DA:428,20
DA:429,0
DA:430,0
DA:431,0
DA:433,0
DA:434,0
DA:436,0
DA:437,0
DA:442,20
DA:443,20
DA:446,20
DA:447,0
DA:448,0
DA:449,0
DA:451,0
DA:452,0
DA:454,0
DA:455,0
DA:460,20
DA:461,20
DA:464,20
DA:465,0
DA:466,0
DA:467,0
DA:469,0
DA:470,0
DA:472,0
DA:473,0
DA:478,20
DA:479,20
DA:482,20
DA:483,0
DA:484,0
DA:485,0
DA:486,0
DA:491,20
DA:492,20
DA:495,20
DA:496,0
DA:497,0
DA:498,0
DA:500,0
DA:501,0
DA:504,20
DA:505,20
DA:508,20
DA:509,0
DA:510,0
DA:511,0
DA:513,0
DA:514,0
DA:517,20
DA:518,20
DA:521,20
DA:522,0
DA:523,0
DA:524,0
DA:526,0
DA:527,0
DA:530,20
DA:531,20
DA:534,20
DA:535,0
DA:536,0
DA:537,0
DA:539,0
DA:540,0
DA:545,20
DA:546,20
DA:547,20
DA:549,20
DA:550,20
DA:551,20
DA:553,20
DA:554,20
DA:555,20
DA:559,20
DA:560,20
DA:563,20
DA:564,6
DA:565,6
DA:566,6
DA:567,0
DA:569,6
DA:570,6
DA:571,6
DA:572,0
DA:574,6
DA:575,6
DA:582,20
DA:583,20
DA:584,20
DA:587,20
DA:588,1
DA:589,1
DA:590,0
DA:591,1
DA:594,20
DA:595,20
DA:598,20
DA:599,1
DA:600,1
DA:601,1
DA:603,0
DA:604,1
DA:608,20
DA:609,20
DA:612,20
DA:613,0
DA:614,0
DA:615,0
DA:616,0
DA:617,0
DA:618,0
DA:620,0
DA:623,0
DA:624,0
DA:628,20
DA:629,20
DA:632,20
DA:633,0
DA:634,0
DA:635,0
DA:636,0
DA:638,0
DA:641,0
DA:642,0
DA:643,0
DA:644,0
DA:645,0
DA:646,0
DA:647,0
DA:649,0
DA:651,0
DA:652,0
DA:658,20
DA:659,260
DA:660,20
DA:661,20
DA:662,20
DA:664,260
DA:665,260
DA:666,260
DA:670,20
DA:672,0
DA:673,0
DA:674,0
DA:676,0
DA:678,0
DA:679,20
DA:680,20
DA:683,20
DA:684,0
DA:685,0
DA:686,0
DA:687,0
DA:689,0
DA:690,0
DA:693,20
DA:694,20
DA:697,20
DA:698,0
DA:699,0
DA:700,0
DA:701,0
DA:703,0
DA:704,0
DA:707,20
DA:708,20
DA:711,20
DA:712,0
DA:713,0
DA:714,0
DA:715,0
DA:717,0
DA:718,0
DA:721,20
DA:722,20
DA:725,20
DA:726,0
DA:727,0
DA:728,0
DA:729,0
DA:731,0
DA:732,0
DA:735,20
DA:736,20
DA:739,20
DA:740,0
DA:741,0
DA:742,0
DA:743,0
DA:745,0
DA:746,0
DA:750,20
DA:751,20
DA:752,20
DA:753,20
DA:756,20
DA:758,0
DA:759,0
DA:760,0
DA:761,0
DA:762,0
DA:763,0
DA:764,0
DA:765,0
DA:766,0
DA:767,0
DA:768,0
DA:769,0
DA:770,0
DA:771,0
DA:772,0
DA:773,0
DA:775,20
DA:776,20
DA:779,20
DA:780,0
DA:781,0
DA:782,0
DA:783,0
DA:784,0
DA:785,0
DA:787,0
DA:788,0
DA:792,20
DA:793,20
DA:796,20
DA:797,0
DA:798,0
DA:799,0
DA:800,0
DA:801,0
DA:803,0
DA:804,0
DA:808,20
DA:809,20
DA:812,20
DA:813,0
DA:814,0
DA:815,0
DA:816,0
DA:820,20
DA:821,20
DA:824,20
DA:825,0
DA:826,0
DA:827,0
DA:828,0
DA:829,0
DA:830,0
DA:832,0
DA:833,0
DA:837,20
DA:838,20
DA:841,20
DA:842,0
DA:843,0
DA:844,0
DA:845,0
DA:846,0
DA:847,0
DA:848,0
DA:849,0
DA:850,0
DA:851,0
DA:852,0
DA:855,0
DA:856,0
DA:860,20
DA:861,20
DA:864,20
DA:865,0
DA:866,0
DA:867,0
DA:868,0
DA:869,0
DA:870,0
DA:871,0
DA:872,0
DA:873,0
DA:875,0
DA:876,0
DA:877,0
DA:878,0
DA:879,0
DA:881,0
DA:884,0
DA:885,0
DA:889,20
DA:890,20
DA:893,20
DA:894,0
DA:895,0
DA:896,0
DA:897,0
DA:898,0
DA:899,0
DA:900,0
DA:901,0
DA:902,0
DA:903,0
DA:904,0
DA:905,0
DA:906,0
DA:907,0
DA:908,0
DA:909,0
DA:911,0
DA:912,0
DA:916,20
DA:917,20
DA:920,20
DA:921,0
DA:922,0
DA:923,0
DA:924,0
DA:925,0
DA:926,0
DA:928,0
DA:929,0
DA:930,0
DA:931,0
DA:932,0
DA:933,0
DA:934,0
DA:935,0
DA:938,0
DA:939,0
DA:940,0
DA:941,0
DA:942,0
DA:943,0
DA:945,0
DA:946,0
DA:950,20
DA:951,20
DA:954,20
DA:955,0
DA:956,0
DA:957,0
DA:958,0
DA:959,0
DA:960,0
DA:962,0
DA:963,0
DA:964,0
DA:965,0
DA:966,0
DA:967,0
DA:968,0
DA:969,0
DA:970,0
DA:973,0
DA:974,0
DA:976,0
DA:977,0
DA:978,0
DA:979,0
DA:980,0
DA:981,0
DA:984,0
DA:985,0
DA:989,20
DA:990,20
DA:993,20
DA:994,0
DA:995,0
DA:996,0
DA:997,0
DA:998,0
DA:999,0
DA:1000,0
DA:1001,0
DA:1003,0
DA:1006,0
DA:1009,0
DA:1010,0
DA:1013,20
DA:1015,20
DA:1016,20
DA:1017,20
DA:1020,20
DA:1021,0
DA:1022,0
DA:1023,0
DA:1024,0
DA:1027,20
DA:1028,20
DA:1031,20
DA:1032,0
DA:1033,0
DA:1034,0
DA:1035,0
DA:1038,20
DA:1039,20
DA:1043,20
DA:1044,20
DA:1047,20
DA:1048,0
DA:1049,0
DA:1050,0
DA:1051,0
DA:1054,20
DA:1055,20
DA:1056,20
DA:1059,20
DA:1060,0
DA:1061,0
DA:1062,0
DA:1063,0
DA:1064,0
DA:1065,0
DA:1066,0
DA:1067,0
DA:1068,0
DA:1069,0
DA:1070,0
DA:1071,0
DA:1074,0
DA:1077,0
DA:1079,0
DA:1080,0
DA:1082,0
DA:1083,0
DA:1084,0
DA:1085,0
DA:1086,0
DA:1087,0
DA:1088,0
DA:1089,0
DA:1090,0
DA:1093,0
DA:1096,0
DA:1098,0
DA:1099,0
DA:1102,20
DA:1103,20
DA:1104,20
DA:1107,20
DA:1108,0
DA:1109,0
DA:1110,0
DA:1111,0
DA:1114,20
DA:1117,20
DA:1118,20
DA:1121,20
DA:1122,0
DA:1123,0
DA:1124,0
DA:1125,0
DA:1128,20
DA:1129,20
DA:1132,20
DA:1133,0
DA:1134,0
DA:1135,0
DA:1136,0
DA:1139,20
DA:1140,20
DA:1143,20
DA:1144,0
DA:1145,0
DA:1146,0
DA:1153,20
DA:1154,20
DA:1157,20
DA:1158,0
DA:1159,0
DA:1160,0
DA:1161,0
DA:1162,0
DA:1163,0
DA:1165,0
DA:1166,0
DA:1167,0
DA:1168,0
DA:1169,0
DA:1171,0
DA:1174,0
DA:1176,0
DA:1180,20
DA:1181,20
DA:1184,2
DA:1186,2
DA:1187,0
DA:1188,0
DA:1189,0
DA:1191,2
DA:1193,2
DA:1194,0
DA:1195,2
DA:1196,0
DA:1197,0
DA:1198,0
DA:1199,0
DA:1200,0
DA:1201,0
DA:1202,0
DA:1203,0
DA:1205,0
DA:1206,0
DA:1207,0
DA:1209,0
DA:1210,0
DA:1212,0
DA:1213,0
DA:1215,0
DA:1219,0
DA:1220,0
DA:1222,0
DA:1223,0
DA:1225,0
DA:1226,0
DA:1227,0
DA:1228,0
DA:1229,0
DA:1230,0
DA:1231,0
DA:1233,0
DA:1235,0
DA:1237,2
DA:1239,0
DA:1240,0
DA:1241,0
DA:1242,0
DA:1243,0
DA:1244,0
DA:1246,1
DA:1247,1
DA:1248,1
DA:1249,1
DA:1250,1
DA:1251,1
DA:1253,0
DA:1254,0
DA:1255,0
DA:1256,0
DA:1257,0
DA:1258,0
DA:1259,0
DA:1260,0
DA:1261,0
DA:1262,0
DA:1264,0
DA:1267,0
DA:1269,0
DA:1271,6
DA:1272,6
DA:1273,1
DA:1275,5
DA:1277,6
DA:1279,0
DA:1280,0
DA:1281,0
DA:1282,0
DA:1283,0
DA:1284,0
DA:1285,0
DA:1287,0
DA:1289,0
DA:1290,0
DA:1292,0
DA:1293,0
DA:1294,0
DA:1296,0
DA:1297,0
DA:1298,0
DA:1300,0
DA:1301,0
DA:1302,0
DA:1304,0
DA:1305,0
DA:1306,0
DA:1308,0
DA:1309,0
DA:1310,0
DA:1312,0
DA:1313,0
DA:1314,0
DA:1316,0
DA:1317,0
DA:1318,0
DA:1319,0
DA:1320,0
DA:1322,0
DA:1323,0
DA:1324,0
DA:1325,0
DA:1326,0
DA:1328,0
DA:1331,0
DA:1333,0
DA:1334,0
DA:1335,0
DA:1336,0
DA:1338,0
DA:1340,0
DA:1341,0
DA:1342,0
DA:1343,0
DA:1345,0
DA:1347,0
DA:1348,0
DA:1349,0
DA:1350,0
DA:1351,0
DA:1352,0
DA:1353,0
DA:1354,0
DA:1357,0
DA:1358,0
DA:1360,0
DA:1361,0
DA:1364,0
DA:1366,6
DA:1367,6
DA:1368,5
DA:1369,5
DA:1370,5
DA:1371,5
DA:1372,5
DA:1374,0
DA:1376,0
DA:1377,0
DA:1379,0
DA:1380,0
DA:1381,0
DA:1383,0
DA:1384,0
DA:1385,0
DA:1387,0
DA:1388,0
DA:1389,0
DA:1391,0
DA:1392,0
DA:1393,0
DA:1395,0
DA:1396,0
DA:1397,0
DA:1399,0
DA:1400,0
DA:1401,0
DA:1403,0
DA:1404,0
DA:1405,0
DA:1406,0
DA:1407,0
DA:1409,0
DA:1410,0
DA:1411,0
DA:1412,0
DA:1413,0
DA:1415,0
DA:1418,0
DA:1420,0
DA:1421,0
DA:1422,0
DA:1423,0
DA:1425,0
DA:1427,0
DA:1428,0
DA:1429,0
DA:1430,0
DA:1432,0
DA:1434,0
DA:1435,0
DA:1436,0
DA:1437,0
DA:1438,0
DA:1439,0
DA:1440,0
DA:1441,0
DA:1444,0
DA:1445,0
DA:1447,0
DA:1448,0
DA:1451,6
DA:1453,4
DA:1455,4
DA:1456,0
DA:1457,2
DA:1458,0
DA:1459,0
DA:1460,0
DA:1461,0
DA:1462,0
DA:1463,1
DA:1464,1
DA:1465,1
DA:1466,2
DA:1468,0
DA:1469,0
DA:1471,0
DA:1472,0
DA:1474,0
DA:1475,0
DA:1476,0
DA:1477,0
DA:1478,0
DA:1481,0
DA:1482,0
DA:1483,1
DA:1485,4
DA:1487,17
DA:1488,17
DA:1489,17
DA:1490,17
DA:1491,17
DA:1492,17
DA:1494,6
DA:1495,6
DA:1496,6
DA:1497,6
DA:1498,12
DA:1499,6
DA:1500,0
DA:1501,6
DA:1502,6
DA:1504,6
DA:1505,6
DA:1506,17
DA:1507,2
DA:1508,0
DA:1509,11
DA:1510,11
DA:1511,11
DA:1512,11
DA:1514,0
DA:1515,0
DA:1516,0
DA:1518,0
DA:1519,0
DA:1520,0
DA:1521,0
DA:1522,0
DA:1523,0
DA:1525,0
DA:1527,0
DA:1529,2
DA:1530,2
DA:1531,1
DA:1532,2
DA:1533,2
DA:1534,2
DA:1536,1
DA:1538,1
DA:1540,0
DA:1541,0
DA:1542,0
DA:1544,0
DA:1545,0
DA:1546,0
DA:1548,0
DA:1549,0
DA:1550,0
DA:1552,0
DA:1553,0
DA:1554,0
DA:1556,0
DA:1557,0
DA:1558,0
DA:1560,0
DA:1561,0
DA:1562,0
DA:1564,0
DA:1565,0
DA:1567,0
DA:1568,0
DA:1569,0
DA:1570,0
DA:1571,0
DA:1573,0
DA:1575,0
DA:1577,1
DA:1578,1
DA:1579,1
DA:1580,2
DA:1581,2
DA:1582,2
DA:1584,1
DA:1586,0
DA:1588,1
DA:1589,1
DA:1590,1
DA:1591,1
DA:1592,1
DA:1593,1
DA:1594,1
DA:1595,1
DA:1596,1
DA:1598,0
DA:1600,0
DA:1601,0
DA:1602,0
DA:1603,0
DA:1604,0
DA:1605,0
DA:1606,0
DA:1607,0
DA:1608,0
DA:1610,0
DA:1611,0
DA:1612,0
DA:1613,0
DA:1614,0
DA:1616,0
DA:1619,17
DA:1621,48
DA:1622,48
DA:1623,4
DA:1624,4
DA:1625,4
DA:1626,0
DA:1627,0
DA:1628,4
DA:1629,4
DA:1630,4
DA:1632,4
DA:1634,4
DA:1635,2
DA:1637,2
DA:1638,2
DA:1640,2
DA:1641,2
DA:1642,2
DA:1643,2
DA:1646,4
DA:1647,4
DA:1648,4
DA:1650,44
DA:1652,48
DA:1654,7
DA:1656,7
DA:1657,0
DA:1658,7
DA:1659,7
DA:1660,0
DA:1661,7
DA:1662,7
DA:1663,0
DA:1665,0
DA:1666,0
DA:1667,0
DA:1668,0
DA:1669,0
DA:1670,0
DA:1671,0
DA:1673,0
DA:1675,0
DA:1676,0
DA:1677,0
DA:1679,0
DA:1682,0
DA:1685,0
DA:1686,0
DA:1688,0
DA:1689,0
DA:1691,0
DA:1692,0
DA:1694,0
DA:1695,0
DA:1696,0
DA:1697,0
DA:1698,0
DA:1701,0
DA:1702,0
DA:1703,0
DA:1705,0
DA:1707,0
DA:1708,0
DA:1710,0
DA:1711,0
DA:1712,0
DA:1713,0
DA:1714,0
DA:1717,3
DA:1718,3
DA:1719,3
DA:1720,1
DA:1721,2
DA:1722,2
DA:1724,0
DA:1725,0
DA:1726,0
DA:1727,0
DA:1729,0
DA:1732,4
DA:1733,4
DA:1734,6
DA:1735,2
DA:1736,2
DA:1737,4
DA:1739,0
DA:1742,0
DA:1744,7
DA:1746,148
DA:1747,0
DA:1748,0
DA:1749,0
DA:1750,0
DA:1751,0
DA:1752,0
DA:1753,0
DA:1754,0
DA:1755,0
DA:1756,0
DA:1757,0
DA:1758,0
DA:1759,0
DA:1761,0
DA:1764,0
DA:1765,0
DA:1766,0
DA:1767,0
DA:1769,0
DA:1770,0
DA:1771,0
DA:1772,0
DA:1773,0
DA:1774,0
DA:1775,0
DA:1777,0
DA:1778,0
DA:1779,0
DA:1780,0
DA:1782,0
DA:1783,0
DA:1785,0
DA:1790,0
DA:1791,148
DA:1792,0
DA:1793,0
DA:1794,2
DA:1795,32
DA:1796,8
DA:1797,0
DA:1798,0
DA:1799,2
DA:1802,2
DA:1804,2
DA:1805,3
DA:1806,3
DA:1807,3
DA:1808,3
DA:1809,3
DA:1810,3
DA:1811,3
DA:1812,3
DA:1814,3
DA:1815,3
DA:1823,0
DA:1824,0
DA:1825,0
DA:1826,0
DA:1827,3
DA:1828,0
DA:1829,0
DA:1830,0
DA:1831,0
DA:1833,0
DA:1834,0
DA:1835,0
DA:1836,0
DA:1838,0
DA:1839,0
DA:1840,0
DA:1841,0
DA:1843,0
DA:1844,0
DA:1845,0
DA:1846,0
DA:1847,0
DA:1848,0
DA:1849,0
DA:1850,0
DA:1852,3
DA:1853,3
DA:1854,3
DA:1855,3
DA:1856,6
DA:1857,3
DA:1858,3
DA:1859,3
DA:1860,3
DA:1861,3
DA:1862,3
DA:1863,3
DA:1864,3
DA:1865,3
DA:1866,3
DA:1867,3
DA:1870,2
DA:1871,2
DA:1873,4
DA:1874,4
DA:1875,14
DA:1876,10
DA:1877,10
DA:1878,0
DA:1879,10
DA:1880,10
DA:1882,4
DA:1884,0
DA:1886,0
DA:1887,0
DA:1889,24
DA:1890,24
DA:1891,24
DA:1893,14
DA:1894,9
DA:1895,9
DA:1897,53
DA:1899,53
DA:1900,25
DA:1901,22
DA:1902,2
DA:1903,2
DA:1904,2
DA:1905,2
DA:1906,20
DA:1907,20
DA:1909,2
DA:1910,2
DA:1911,2
DA:1912,2
DA:1913,18
DA:1914,18
DA:1916,4
DA:1917,4
DA:1918,0
DA:1919,4
DA:1920,4
DA:1921,4
DA:1922,4
DA:1923,4
DA:1924,0
DA:1925,4
DA:1926,4
DA:1927,14
DA:1928,3
DA:1929,28
DA:1931,45
DA:1932,45
DA:1933,0
DA:1934,0
DA:1935,0
DA:1936,0
DA:1937,0
DA:1939,0
DA:1940,0
DA:1946,45
DA:1947,0
DA:1948,45
DA:1949,45
DA:1950,45
DA:1951,0
DA:1952,0
DA:1953,0
DA:1954,0
DA:1955,0
DA:1957,0
DA:1961,45
DA:1962,0
DA:1963,45
DA:1964,45
DA:1965,0
DA:1966,0
DA:1967,0
DA:1968,0
DA:1969,0
DA:1970,0
DA:1971,0
DA:1972,0
DA:1974,0
DA:1976,0
DA:1977,0
DA:1978,0
DA:1980,0
DA:1981,0
DA:1982,0
DA:1983,0
DA:1986,0
DA:1990,7
DA:1991,7
DA:1993,7
DA:1994,7
DA:1995,7
DA:1996,7
DA:1998,0
DA:1999,0
DA:2000,0
DA:2001,0
DA:2002,0
DA:2003,0
DA:2004,7
DA:2005,7
DA:2007,3
DA:2008,3
DA:2009,3
DA:2010,3
DA:2011,3
DA:2012,3
DA:2014,0
DA:2015,0
DA:2016,0
DA:2018,3
DA:2019,3
DA:2021,30
DA:2022,30
DA:2023,30
DA:2024,8
DA:2025,22
DA:2026,22
DA:2027,21
DA:2028,1
DA:2029,0
DA:2030,1
DA:2031,1
DA:2037,0
DA:2038,0
DA:2039,0
DA:2040,0
DA:2041,0
DA:2042,0
DA:2043,0
DA:2044,0
DA:2045,0
DA:2046,0
DA:2050,0
DA:2051,0
DA:2052,0
DA:2053,0
DA:2054,0
DA:2055,0
DA:2056,0
DA:2057,0
DA:2058,0
DA:2059,0
DA:2060,0
DA:2061,0
DA:2062,0
DA:2063,0
DA:2068,0
DA:2071,0
DA:2072,0
DA:2073,0
DA:2074,0
DA:2075,0
DA:2076,0
DA:2077,0
DA:2078,0
DA:2079,0
DA:2080,0
DA:2081,0
DA:2082,0
DA:2084,0
DA:2085,0
DA:2086,0
DA:2087,0
DA:2092,0
DA:2095,0
DA:2098,0
DA:2101,5
DA:2102,5
DA:2103,11
DA:2104,7
DA:2105,7
DA:2106,4
DA:2107,4
DA:2108,0
DA:2109,0
DA:2110,0
DA:2111,0
DA:2113,0
DA:2114,0
DA:2115,0
DA:2116,0
DA:2120,1
DA:2123,0
DA:2126,0
DA:2127,0
DA:2129,0
DA:2130,0
DA:2131,0
DA:2132,0
DA:2133,0
DA:2134,0
DA:2136,0
DA:2137,0
DA:2138,0
DA:2140,0
DA:2141,0
DA:2142,0
DA:2143,0
DA:2145,0
DA:2147,0
DA:2150,0
DA:2151,0
DA:2153,0
DA:2154,0
DA:2155,0
DA:2156,0
DA:2157,0
DA:2158,0
DA:2160,0
DA:2164,148
DA:2171,9
DA:2172,9
DA:2173,9
DA:2176,1
DA:2177,1
DA:2179,1
DA:2180,1
DA:2181,0
DA:2183,1
DA:2184,1
DA:2185,0
DA:2188,1
DA:2190,1
DA:2191,1
DA:2192,1
DA:2193,0
DA:2197,1
DA:2198,1
DA:2199,1
DA:2200,1
DA:2201,1
DA:2202,0
DA:2204,1
DA:2205,21
DA:2206,21
DA:2207,21
DA:2208,3
DA:2209,3
DA:2210,3
DA:2211,6
DA:2212,6
DA:2213,6
DA:2216,1
DA:2219,1
DA:2221,1
DA:2222,1
DA:2223,1
DA:2224,1
DA:2226,1
DA:2227,1
DA:2228,1
DA:2231,1
DA:2232,1
DA:2233,1
DA:2235,1
DA:2236,1
DA:2237,1
DA:2240,1
DA:2241,1
DA:2242,1
DA:2243,1
DA:2244,0
DA:2248,1
DA:2249,1
DA:2250,1
DA:2251,1
DA:2253,1
DA:2254,1
DA:2255,1
DA:2257,1
DA:2258,1
DA:2259,1
DA:2261,1
DA:2262,1
DA:2263,1
DA:2264,1
DA:2265,0
DA:2267,1
DA:2270,1
DA:2272,1
DA:2273,1
DA:2274,1
DA:2275,1
DA:2276,1
DA:2277,1
DA:2278,1
DA:2279,1
DA:2280,1
DA:2281,1
DA:2282,1
DA:2283,1
DA:2285,1
DA:2286,1
DA:2287,1
DA:2288,1
DA:2289,0
DA:2291,1
DA:2294,1
DA:2296,1
DA:2297,1
DA:2298,1
DA:2299,1
DA:2300,1
DA:2301,1
DA:2303,1
DA:2304,1
DA:2305,1
DA:2307,1
DA:2308,1
DA:2309,1
DA:2310,1
DA:2311,0
DA:2313,1
DA:2316,1
DA:2318,1
DA:2319,1
DA:2320,1
DA:2321,1
DA:2322,1
DA:2323,1
DA:2324,1
DA:2326,1
DA:2327,1
DA:2328,1
DA:2329,1
DA:2331,1
DA:2332,1
DA:2333,1
DA:2334,1
DA:2335,0
DA:2337,1
DA:2340,1
DA:2342,1
DA:2343,1
DA:2344,1
DA:2345,1
DA:2346,1
DA:2348,1
DA:2349,1
DA:2350,1
DA:2351,1
DA:2352,0
DA:2354,1
DA:2357,1
DA:2359,1
DA:2360,1
DA:2361,1
DA:2362,1
DA:2363,1
DA:2364,1
DA:2365,1
DA:2366,1
DA:2367,1
DA:2368,1
DA:2369,1
DA:2370,1
DA:2372,1
DA:2373,1
DA:2374,1
DA:2375,1
DA:2377,1
DA:2378,1
DA:2379,1
DA:2381,1
DA:2382,1
DA:2383,1
DA:2385,1
DA:2386,1
DA:2387,1
DA:2388,0
DA:2390,1
DA:2393,1
DA:2395,1
DA:2396,1
DA:2397,1
DA:2398,1
DA:2399,1
DA:2400,1
DA:2401,1
DA:2402,1
DA:2403,1
DA:2404,1
DA:2405,1
DA:2406,1
DA:2407,1
DA:2409,1
DA:2410,1
DA:2411,1
DA:2413,1
DA:2414,1
DA:2415,1
DA:2416,1
DA:2417,1
DA:2418,1
DA:2420,0
DA:2422,0
DA:2424,1
DA:2427,1
DA:2429,1
DA:2430,1
DA:2431,1
DA:2432,1
DA:2433,1
DA:2434,1
DA:2436,1
DA:2437,1
DA:2438,1
DA:2440,1
DA:2441,1
DA:2442,1
DA:2443,1
DA:2446,1
DA:2448,1
DA:2449,1
DA:2450,1
DA:2451,1
DA:2452,1
DA:2453,1
DA:2454,1
DA:2455,1
DA:2456,1
DA:2457,1
DA:2458,1
DA:2459,1
DA:2461,1
DA:2462,1
DA:2463,1
DA:2464,1
DA:2465,1
DA:2466,1
DA:2467,0
DA:2469,1
DA:2472,1
DA:2474,1
DA:2475,1
DA:2476,1
DA:2477,1
DA:2478,1
DA:2479,1
DA:2480,1
DA:2481,1
DA:2482,1
DA:2483,1
DA:2484,1
DA:2485,1
DA:2486,1
DA:2487,1
DA:2488,1
DA:2489,1
DA:2490,1
DA:2491,1
DA:2493,1
DA:2494,1
DA:2495,1
DA:2496,1
DA:2497,1
DA:2498,1
DA:2499,1
DA:2500,0
DA:2502,1
DA:2505,1
DA:2506,1
DA:2507,1
DA:2508,1
DA:2509,1
DA:2510,1
DA:2511,1
DA:2513,1
DA:2514,1
DA:2515,1
DA:2517,1
DA:2518,1
DA:2519,1
DA:2520,1
DA:2521,1
DA:2522,0
DA:2523,1
DA:2524,0
DA:2526,1
DA:2529,1
DA:2531,1
DA:2532,1
DA:2533,1
DA:2534,1
DA:2535,1
DA:2536,1
DA:2537,1
DA:2538,1
DA:2540,1
DA:2541,1
DA:2542,1
DA:2544,1
DA:2545,1
DA:2546,1
DA:2548,1
DA:2549,1
DA:2550,1
DA:2552,1
DA:2553,1
DA:2554,1
DA:2555,1
DA:2556,1
DA:2559,1
DA:2560,1
DA:2561,1
DA:2562,1
DA:2563,1
DA:2564,1
DA:2565,1
DA:2566,0
DA:2568,1
DA:2571,1
DA:2573,1
DA:2574,1
DA:2575,1
DA:2576,1
DA:2577,1
DA:2579,1
DA:2580,1
DA:2581,1
DA:2582,1
DA:2584,1
DA:2585,1
DA:2586,1
DA:2587,1
DA:2588,1
DA:2589,1
DA:2590,0
DA:2593,0
DA:2595,1
BRF:0
BRH:0
LF:1791
LH:820
end_of_record
SF:/home/mako10k/lzscr/crates/lzscr-types/src/lib.rs
FN:2205,_RNvNtCs2EWVIURYuca_11lzscr_types3api11prelude_env
FN:2093,_RNvNtCs2EWVIURYuca_11lzscr_types3api13infer_program
FN:2142,_RNvNtCs2EWVIURYuca_11lzscr_types3api15infer_ast_debug
FN:2180,_RNvNtCs2EWVIURYuca_11lzscr_types3api20infer_ast_debug_with
FN:2098,_RNvNtCs2EWVIURYuca_11lzscr_types3api23infer_program_with_opts
FN:2124,_RNvNtCs2EWVIURYuca_11lzscr_types3api9infer_ast
FN:2361,_RNvNvNtCs2EWVIURYuca_11lzscr_types3api11prelude_env6record
FN:734,_RNvCs2EWVIURYuca_11lzscr_types10generalize
FN:1008,_RNvCs2EWVIURYuca_11lzscr_types10infer_expr
FN:972,_RNvCs2EWVIURYuca_11lzscr_types10pop_tyvars
FN:725,_RNvCs2EWVIURYuca_11lzscr_types11instantiate
FN:943,_RNvCs2EWVIURYuca_11lzscr_types12lookup_tyvar
FN:750,_RNvCs2EWVIURYuca_11lzscr_types13infer_pattern
FN:1806,_RNvCs2EWVIURYuca_11lzscr_types15short_expr_kind
FN:113,_RNvCs2EWVIURYuca_11lzscr_types16normalize_tuples
FN:1898,_RNvCs2EWVIURYuca_11lzscr_types16user_pretty_type
FN:980,_RNvCs2EWVIURYuca_11lzscr_types19conv_typeexpr_fresh
FN:282,_RNvCs2EWVIURYuca_11lzscr_types20build_typedefs_frame
FN:315,_RNvCs2EWVIURYuca_11lzscr_types20build_typename_frame
FN:296,_RNvCs2EWVIURYuca_11lzscr_types20typedefs_lookup_ctor
FN:605,_RNvCs2EWVIURYuca_11lzscr_types21instantiate_named_sum
FN:544,_RNvCs2EWVIURYuca_11lzscr_types24conv_typeexpr_with_subst
FN:952,_RNvCs2EWVIURYuca_11lzscr_types24push_tyvars_from_pattern
FN:332,_RNvCs2EWVIURYuca_11lzscr_types24typedefs_lookup_typename
FN:497,_RNvCs2EWVIURYuca_11lzscr_types25check_positive_occurrence
FN:524,_RNvCs2EWVIURYuca_11lzscr_types27validate_typedecls_positive
FN:700,_RNvCs2EWVIURYuca_11lzscr_types4bind
FN:374,_RNvCs2EWVIURYuca_11lzscr_types5unify
FN:369,_RNvCs2EWVIURYuca_11lzscr_types6occurs
FN:1889,_RNvCs2EWVIURYuca_11lzscr_types7pp_atom
FN:1832,_RNvCs2EWVIURYuca_11lzscr_types7pp_type
FN:644,_RNvCs2EWVIURYuca_11lzscr_types9ctx_unify
FN:77,_RNvCs2EWVIURYuca_11lzscr_types9zonk_type
FN:40,_RNvMCs2EWVIURYuca_11lzscr_typesNtB2_4Type3fun
FN:271,_RNvMs3_Cs2EWVIURYuca_11lzscr_typesNtB5_5TvGen5fresh
FN:720,_RNvMs4_Cs2EWVIURYuca_11lzscr_typesNtB5_7TypeEnv3get
FN:714,_RNvMs4_Cs2EWVIURYuca_11lzscr_typesNtB5_7TypeEnv3new
FN:717,_RNvMs4_Cs2EWVIURYuca_11lzscr_typesNtB5_7TypeEnv6insert
FN:936,_RNvMs5_Cs2EWVIURYuca_11lzscr_typesNtB5_11DebugConfig10log_scheme
FN:927,_RNvMs5_Cs2EWVIURYuca_11lzscr_typesNtB5_11DebugConfig8dump_env
FN:55,_RNvMs_Cs2EWVIURYuca_11lzscr_typesNtB4_5Subst3new
FN:63,_RNvMs_Cs2EWVIURYuca_11lzscr_typesNtB4_5Subst7compose
FN:58,_RNvMs_Cs2EWVIURYuca_11lzscr_typesNtB4_5Subst9singleton
FN:1141,_RNvNvCs2EWVIURYuca_11lzscr_types10infer_expr12is_ctor_like
FN:1520,_RNvNvCs2EWVIURYuca_11lzscr_types10infer_expr12is_list_like
FN:1019,_RNvNvCs2EWVIURYuca_11lzscr_types10infer_expr13conv_typeexpr
FN:1144,_RNvNvCs2EWVIURYuca_11lzscr_types10infer_expr14merge_variants
FN:1495,_RNvNvCs2EWVIURYuca_11lzscr_types10infer_expr9merge_ret
FN:1901,_RNvNvCs2EWVIURYuca_11lzscr_types16user_pretty_type13collect_order
FN:1959,_RNvNvCs2EWVIURYuca_11lzscr_types16user_pretty_type2go
FN:1946,_RNvNvCs2EWVIURYuca_11lzscr_types16user_pretty_type7name_of
FN:1833,_RNvNvCs2EWVIURYuca_11lzscr_types7pp_type10rename_var
FN:183,_RNvXs0_Cs2EWVIURYuca_11lzscr_typesNtB5_4TypeNtB5_10TypesApply3ftv
FN:153,_RNvXs0_Cs2EWVIURYuca_11lzscr_typesNtB5_4TypeNtB5_10TypesApply5apply
FN:240,_RNvXs1_Cs2EWVIURYuca_11lzscr_typesNtB5_6SchemeNtB5_10TypesApply3ftv
FN:230,_RNvXs1_Cs2EWVIURYuca_11lzscr_typesNtB5_6SchemeNtB5_10TypesApply5apply
FN:257,_RNvXs2_Cs2EWVIURYuca_11lzscr_typesNtB5_5SubstNtB5_10TypesApply3ftv
FN:250,_RNvXs2_Cs2EWVIURYuca_11lzscr_typesNtB5_5SubstNtB5_10TypesApply5apply
FN:2099,_RNCNvNtCs2EWVIURYuca_11lzscr_types3api23infer_program_with_opts0B5_
FN:922,_RINvMs5_Cs2EWVIURYuca_11lzscr_typesNtB6_11DebugConfig3logNtNtCs8Ty2CzGA6U3_5alloc6string6StringEB6_
FN:922,_RINvMs5_Cs2EWVIURYuca_11lzscr_typesNtB6_11DebugConfig3logReEB6_
FN:1878,_RNCNCNvCs2EWVIURYuca_11lzscr_types7pp_types0_00B5_
FN:105,_RNCNCNvCs2EWVIURYuca_11lzscr_types9zonk_types1_00B5_
FN:2053,_RNCNCNvNvCs2EWVIURYuca_11lzscr_types16user_pretty_type2gos1_00B7_
FN:175,_RNCNCNvXs0_Cs2EWVIURYuca_11lzscr_typesNtB9_4TypeNtB9_10TypesApply5applys1_00B9_
FN:735,_RNCNvCs2EWVIURYuca_11lzscr_types10generalize0B3_
FN:1095,_RNCNvCs2EWVIURYuca_11lzscr_types10infer_expr0B3_
FN:1232,_RNCNvCs2EWVIURYuca_11lzscr_types10infer_exprs0_0B3_
FN:1383,_RNCNvCs2EWVIURYuca_11lzscr_types10infer_exprs1_0B3_
FN:1558,_RNCNvCs2EWVIURYuca_11lzscr_types10infer_exprs2_0B3_
FN:1674,_RNCNvCs2EWVIURYuca_11lzscr_types10infer_exprs3_0B3_
FN:1770,_RNCNvCs2EWVIURYuca_11lzscr_types10infer_exprs4_0B3_
FN:1780,_RNCNvCs2EWVIURYuca_11lzscr_types10infer_exprs5_0B3_
FN:1215,_RNCNvCs2EWVIURYuca_11lzscr_types10infer_exprs_0B3_
FN:761,_RNCNvCs2EWVIURYuca_11lzscr_types13infer_pattern0B3_
FN:767,_RNCNvCs2EWVIURYuca_11lzscr_types13infer_patterns0_0B3_
FN:770,_RNCNvCs2EWVIURYuca_11lzscr_types13infer_patterns1_0B3_
FN:773,_RNCNvCs2EWVIURYuca_11lzscr_types13infer_patterns2_0B3_
FN:776,_RNCNvCs2EWVIURYuca_11lzscr_types13infer_patterns3_0B3_
FN:838,_RNCNvCs2EWVIURYuca_11lzscr_types13infer_patterns4_0B3_
FN:865,_RNCNvCs2EWVIURYuca_11lzscr_types13infer_patterns5_0B3_
FN:868,_RNCNvCs2EWVIURYuca_11lzscr_types13infer_patterns6_0B3_
FN:764,_RNCNvCs2EWVIURYuca_11lzscr_types13infer_patterns_0B3_
FN:116,_RNCNvCs2EWVIURYuca_11lzscr_types16normalize_tuples0B3_
FN:140,_RNCNvCs2EWVIURYuca_11lzscr_types16normalize_tupless_0B3_
FN:989,_RNCNvCs2EWVIURYuca_11lzscr_types19conv_typeexpr_fresh0B3_
FN:999,_RNCNvCs2EWVIURYuca_11lzscr_types19conv_typeexpr_freshs_0B3_
FN:611,_RNCNvCs2EWVIURYuca_11lzscr_types21instantiate_named_sum0B3_
FN:559,_RNCNvCs2EWVIURYuca_11lzscr_types24conv_typeexpr_with_subst0B3_
FN:576,_RNCNvCs2EWVIURYuca_11lzscr_types24conv_typeexpr_with_substs_0B3_
FN:508,_RNCNvCs2EWVIURYuca_11lzscr_types25check_positive_occurrence0B3_
FN:518,_RNCNvCs2EWVIURYuca_11lzscr_types25check_positive_occurrences0_0B3_
FN:510,_RNCNvCs2EWVIURYuca_11lzscr_types25check_positive_occurrences_0B3_
FN:403,_RNCNvCs2EWVIURYuca_11lzscr_types5unify0B3_
FN:463,_RNCNvCs2EWVIURYuca_11lzscr_types5unifys0_0B3_
FN:440,_RNCNvCs2EWVIURYuca_11lzscr_types5unifys_0B3_
FN:1850,_RNCNvCs2EWVIURYuca_11lzscr_types7pp_type0B3_
FN:1874,_RNCNvCs2EWVIURYuca_11lzscr_types7pp_types0_0B3_
FN:1871,_RNCNvCs2EWVIURYuca_11lzscr_types7pp_types_0B3_
FN:676,_RNCNvCs2EWVIURYuca_11lzscr_types9ctx_unify0B3_
FN:88,_RNCNvCs2EWVIURYuca_11lzscr_types9zonk_type0B3_
FN:101,_RNCNvCs2EWVIURYuca_11lzscr_types9zonk_types0_0B3_
FN:105,_RNCNvCs2EWVIURYuca_11lzscr_types9zonk_types1_0B3_
FN:98,_RNCNvCs2EWVIURYuca_11lzscr_types9zonk_types_0B3_
FN:930,_RNCNvMs5_Cs2EWVIURYuca_11lzscr_typesNtB7_11DebugConfig8dump_env0B7_
FN:1029,_RNCNvNvCs2EWVIURYuca_11lzscr_types10infer_expr13conv_typeexpr0B5_
FN:1056,_RNCNvNvCs2EWVIURYuca_11lzscr_types10infer_expr13conv_typeexprs0_0B5_
FN:1066,_RNCNvNvCs2EWVIURYuca_11lzscr_types10infer_expr13conv_typeexprs1_0B5_
FN:1043,_RNCNvNvCs2EWVIURYuca_11lzscr_types10infer_expr13conv_typeexprs_0B5_
FN:1970,_RNCNvNvCs2EWVIURYuca_11lzscr_types16user_pretty_type2go0B5_
FN:1986,_RNCNvNvCs2EWVIURYuca_11lzscr_types16user_pretty_type2gos0_0B5_
FN:2045,_RNCNvNvCs2EWVIURYuca_11lzscr_types16user_pretty_type2gos1_0B5_
FN:2008,_RNCNvNvCs2EWVIURYuca_11lzscr_types16user_pretty_type2gos2_0B5_
FN:2029,_RNCNvNvCs2EWVIURYuca_11lzscr_types16user_pretty_type2gos3_0B5_
FN:1980,_RNCNvNvCs2EWVIURYuca_11lzscr_types16user_pretty_type2gos_0B5_
FN:158,_RNCNvXs0_Cs2EWVIURYuca_11lzscr_typesNtB7_4TypeNtB7_10TypesApply5apply0B7_
FN:171,_RNCNvXs0_Cs2EWVIURYuca_11lzscr_typesNtB7_4TypeNtB7_10TypesApply5applys0_0B7_
FN:175,_RNCNvXs0_Cs2EWVIURYuca_11lzscr_typesNtB7_4TypeNtB7_10TypesApply5applys1_0B7_
FN:168,_RNCNvXs0_Cs2EWVIURYuca_11lzscr_typesNtB7_4TypeNtB7_10TypesApply5applys_0B7_
FN:2099,_RNCNvNtCs9UgpDRi4W1g_11lzscr_types3api23infer_program_with_opts0B5_
FN:2205,_RNvNtCs9UgpDRi4W1g_11lzscr_types3api11prelude_env
FN:2093,_RNvNtCs9UgpDRi4W1g_11lzscr_types3api13infer_program
FN:2098,_RNvNtCs9UgpDRi4W1g_11lzscr_types3api23infer_program_with_opts
FN:2361,_RNvNvNtCs9UgpDRi4W1g_11lzscr_types3api11prelude_env6record
FN:734,_RNvCs9UgpDRi4W1g_11lzscr_types10generalize
FN:1008,_RNvCs9UgpDRi4W1g_11lzscr_types10infer_expr
FN:972,_RNvCs9UgpDRi4W1g_11lzscr_types10pop_tyvars
FN:725,_RNvCs9UgpDRi4W1g_11lzscr_types11instantiate
FN:943,_RNvCs9UgpDRi4W1g_11lzscr_types12lookup_tyvar
FN:750,_RNvCs9UgpDRi4W1g_11lzscr_types13infer_pattern
FN:1806,_RNvCs9UgpDRi4W1g_11lzscr_types15short_expr_kind
FN:113,_RNvCs9UgpDRi4W1g_11lzscr_types16normalize_tuples
FN:1898,_RNvCs9UgpDRi4W1g_11lzscr_types16user_pretty_type
FN:980,_RNvCs9UgpDRi4W1g_11lzscr_types19conv_typeexpr_fresh
FN:282,_RNvCs9UgpDRi4W1g_11lzscr_types20build_typedefs_frame
FN:315,_RNvCs9UgpDRi4W1g_11lzscr_types20build_typename_frame
FN:296,_RNvCs9UgpDRi4W1g_11lzscr_types20typedefs_lookup_ctor
FN:605,_RNvCs9UgpDRi4W1g_11lzscr_types21instantiate_named_sum
FN:544,_RNvCs9UgpDRi4W1g_11lzscr_types24conv_typeexpr_with_subst
FN:952,_RNvCs9UgpDRi4W1g_11lzscr_types24push_tyvars_from_pattern
FN:332,_RNvCs9UgpDRi4W1g_11lzscr_types24typedefs_lookup_typename
FN:497,_RNvCs9UgpDRi4W1g_11lzscr_types25check_positive_occurrence
FN:524,_RNvCs9UgpDRi4W1g_11lzscr_types27validate_typedecls_positive
FN:700,_RNvCs9UgpDRi4W1g_11lzscr_types4bind
FN:374,_RNvCs9UgpDRi4W1g_11lzscr_types5unify
FN:369,_RNvCs9UgpDRi4W1g_11lzscr_types6occurs
FN:1889,_RNvCs9UgpDRi4W1g_11lzscr_types7pp_atom
FN:1832,_RNvCs9UgpDRi4W1g_11lzscr_types7pp_type
FN:644,_RNvCs9UgpDRi4W1g_11lzscr_types9ctx_unify
FN:77,_RNvCs9UgpDRi4W1g_11lzscr_types9zonk_type
FN:40,_RNvMCs9UgpDRi4W1g_11lzscr_typesNtB2_4Type3fun
FN:271,_RNvMs3_Cs9UgpDRi4W1g_11lzscr_typesNtB5_5TvGen5fresh
FN:720,_RNvMs4_Cs9UgpDRi4W1g_11lzscr_typesNtB5_7TypeEnv3get
FN:714,_RNvMs4_Cs9UgpDRi4W1g_11lzscr_typesNtB5_7TypeEnv3new
FN:717,_RNvMs4_Cs9UgpDRi4W1g_11lzscr_typesNtB5_7TypeEnv6insert
FN:936,_RNvMs5_Cs9UgpDRi4W1g_11lzscr_typesNtB5_11DebugConfig10log_scheme
FN:927,_RNvMs5_Cs9UgpDRi4W1g_11lzscr_typesNtB5_11DebugConfig8dump_env
FN:55,_RNvMs_Cs9UgpDRi4W1g_11lzscr_typesNtB4_5Subst3new
FN:63,_RNvMs_Cs9UgpDRi4W1g_11lzscr_typesNtB4_5Subst7compose
FN:58,_RNvMs_Cs9UgpDRi4W1g_11lzscr_typesNtB4_5Subst9singleton
FN:1141,_RNvNvCs9UgpDRi4W1g_11lzscr_types10infer_expr12is_ctor_like
FN:1520,_RNvNvCs9UgpDRi4W1g_11lzscr_types10infer_expr12is_list_like
FN:1019,_RNvNvCs9UgpDRi4W1g_11lzscr_types10infer_expr13conv_typeexpr
FN:1144,_RNvNvCs9UgpDRi4W1g_11lzscr_types10infer_expr14merge_variants
FN:1495,_RNvNvCs9UgpDRi4W1g_11lzscr_types10infer_expr9merge_ret
FN:1901,_RNvNvCs9UgpDRi4W1g_11lzscr_types16user_pretty_type13collect_order
FN:1959,_RNvNvCs9UgpDRi4W1g_11lzscr_types16user_pretty_type2go
FN:1946,_RNvNvCs9UgpDRi4W1g_11lzscr_types16user_pretty_type7name_of
FN:1833,_RNvNvCs9UgpDRi4W1g_11lzscr_types7pp_type10rename_var
FN:183,_RNvXs0_Cs9UgpDRi4W1g_11lzscr_typesNtB5_4TypeNtB5_10TypesApply3ftv
FN:153,_RNvXs0_Cs9UgpDRi4W1g_11lzscr_typesNtB5_4TypeNtB5_10TypesApply5apply
FN:240,_RNvXs1_Cs9UgpDRi4W1g_11lzscr_typesNtB5_6SchemeNtB5_10TypesApply3ftv
FN:2142,_RNvNtCs9UgpDRi4W1g_11lzscr_types3api15infer_ast_debug
FN:2180,_RNvNtCs9UgpDRi4W1g_11lzscr_types3api20infer_ast_debug_with
FN:2124,_RNvNtCs9UgpDRi4W1g_11lzscr_types3api9infer_ast
FN:230,_RNvXs1_Cs9UgpDRi4W1g_11lzscr_typesNtB5_6SchemeNtB5_10TypesApply5apply
FN:257,_RNvXs2_Cs9UgpDRi4W1g_11lzscr_typesNtB5_5SubstNtB5_10TypesApply3ftv
FN:250,_RNvXs2_Cs9UgpDRi4W1g_11lzscr_typesNtB5_5SubstNtB5_10TypesApply5apply
FN:2454,_RNvNtCs9UgpDRi4W1g_11lzscr_types5testss_18infer_char_literal
FN:922,_RINvMs5_Cs9UgpDRi4W1g_11lzscr_typesNtB6_11DebugConfig3logNtNtCs8Ty2CzGA6U3_5alloc6string6StringEB6_
FN:922,_RINvMs5_Cs9UgpDRi4W1g_11lzscr_typesNtB6_11DebugConfig3logReEB6_
FN:1878,_RNCNCNvCs9UgpDRi4W1g_11lzscr_types7pp_types0_00B5_
FN:105,_RNCNCNvCs9UgpDRi4W1g_11lzscr_types9zonk_types1_00B5_
FN:2053,_RNCNCNvNvCs9UgpDRi4W1g_11lzscr_types16user_pretty_type2gos1_00B7_
FN:175,_RNCNCNvXs0_Cs9UgpDRi4W1g_11lzscr_typesNtB9_4TypeNtB9_10TypesApply5applys1_00B9_
FN:735,_RNCNvCs9UgpDRi4W1g_11lzscr_types10generalize0B3_
FN:1095,_RNCNvCs9UgpDRi4W1g_11lzscr_types10infer_expr0B3_
FN:1232,_RNCNvCs9UgpDRi4W1g_11lzscr_types10infer_exprs0_0B3_
FN:1383,_RNCNvCs9UgpDRi4W1g_11lzscr_types10infer_exprs1_0B3_
FN:1558,_RNCNvCs9UgpDRi4W1g_11lzscr_types10infer_exprs2_0B3_
FN:1674,_RNCNvCs9UgpDRi4W1g_11lzscr_types10infer_exprs3_0B3_
FN:1770,_RNCNvCs9UgpDRi4W1g_11lzscr_types10infer_exprs4_0B3_
FN:1780,_RNCNvCs9UgpDRi4W1g_11lzscr_types10infer_exprs5_0B3_
FN:1215,_RNCNvCs9UgpDRi4W1g_11lzscr_types10infer_exprs_0B3_
FN:761,_RNCNvCs9UgpDRi4W1g_11lzscr_types13infer_pattern0B3_
FN:767,_RNCNvCs9UgpDRi4W1g_11lzscr_types13infer_patterns0_0B3_
FN:770,_RNCNvCs9UgpDRi4W1g_11lzscr_types13infer_patterns1_0B3_
FN:773,_RNCNvCs9UgpDRi4W1g_11lzscr_types13infer_patterns2_0B3_
FN:776,_RNCNvCs9UgpDRi4W1g_11lzscr_types13infer_patterns3_0B3_
FN:838,_RNCNvCs9UgpDRi4W1g_11lzscr_types13infer_patterns4_0B3_
FN:865,_RNCNvCs9UgpDRi4W1g_11lzscr_types13infer_patterns5_0B3_
FN:868,_RNCNvCs9UgpDRi4W1g_11lzscr_types13infer_patterns6_0B3_
FN:764,_RNCNvCs9UgpDRi4W1g_11lzscr_types13infer_patterns_0B3_
FN:116,_RNCNvCs9UgpDRi4W1g_11lzscr_types16normalize_tuples0B3_
FN:140,_RNCNvCs9UgpDRi4W1g_11lzscr_types16normalize_tupless_0B3_
FN:989,_RNCNvCs9UgpDRi4W1g_11lzscr_types19conv_typeexpr_fresh0B3_
FN:999,_RNCNvCs9UgpDRi4W1g_11lzscr_types19conv_typeexpr_freshs_0B3_
FN:611,_RNCNvCs9UgpDRi4W1g_11lzscr_types21instantiate_named_sum0B3_
FN:559,_RNCNvCs9UgpDRi4W1g_11lzscr_types24conv_typeexpr_with_subst0B3_
FN:576,_RNCNvCs9UgpDRi4W1g_11lzscr_types24conv_typeexpr_with_substs_0B3_
FN:508,_RNCNvCs9UgpDRi4W1g_11lzscr_types25check_positive_occurrence0B3_
FN:518,_RNCNvCs9UgpDRi4W1g_11lzscr_types25check_positive_occurrences0_0B3_
FN:510,_RNCNvCs9UgpDRi4W1g_11lzscr_types25check_positive_occurrences_0B3_
FN:403,_RNCNvCs9UgpDRi4W1g_11lzscr_types5unify0B3_
FN:463,_RNCNvCs9UgpDRi4W1g_11lzscr_types5unifys0_0B3_
FN:440,_RNCNvCs9UgpDRi4W1g_11lzscr_types5unifys_0B3_
FN:1850,_RNCNvCs9UgpDRi4W1g_11lzscr_types7pp_type0B3_
FN:1874,_RNCNvCs9UgpDRi4W1g_11lzscr_types7pp_types0_0B3_
FN:1871,_RNCNvCs9UgpDRi4W1g_11lzscr_types7pp_types_0B3_
FN:676,_RNCNvCs9UgpDRi4W1g_11lzscr_types9ctx_unify0B3_
FN:88,_RNCNvCs9UgpDRi4W1g_11lzscr_types9zonk_type0B3_
FN:101,_RNCNvCs9UgpDRi4W1g_11lzscr_types9zonk_types0_0B3_
FN:105,_RNCNvCs9UgpDRi4W1g_11lzscr_types9zonk_types1_0B3_
FN:98,_RNCNvCs9UgpDRi4W1g_11lzscr_types9zonk_types_0B3_
FN:930,_RNCNvMs5_Cs9UgpDRi4W1g_11lzscr_typesNtB7_11DebugConfig8dump_env0B7_
FN:1029,_RNCNvNvCs9UgpDRi4W1g_11lzscr_types10infer_expr13conv_typeexpr0B5_
FN:1056,_RNCNvNvCs9UgpDRi4W1g_11lzscr_types10infer_expr13conv_typeexprs0_0B5_
FN:1066,_RNCNvNvCs9UgpDRi4W1g_11lzscr_types10infer_expr13conv_typeexprs1_0B5_
FN:1043,_RNCNvNvCs9UgpDRi4W1g_11lzscr_types10infer_expr13conv_typeexprs_0B5_
FN:1970,_RNCNvNvCs9UgpDRi4W1g_11lzscr_types16user_pretty_type2go0B5_
FN:1986,_RNCNvNvCs9UgpDRi4W1g_11lzscr_types16user_pretty_type2gos0_0B5_
FN:2045,_RNCNvNvCs9UgpDRi4W1g_11lzscr_types16user_pretty_type2gos1_0B5_
FN:2008,_RNCNvNvCs9UgpDRi4W1g_11lzscr_types16user_pretty_type2gos2_0B5_
FN:2029,_RNCNvNvCs9UgpDRi4W1g_11lzscr_types16user_pretty_type2gos3_0B5_
FN:1980,_RNCNvNvCs9UgpDRi4W1g_11lzscr_types16user_pretty_type2gos_0B5_
FN:158,_RNCNvXs0_Cs9UgpDRi4W1g_11lzscr_typesNtB7_4TypeNtB7_10TypesApply5apply0B7_
FN:171,_RNCNvXs0_Cs9UgpDRi4W1g_11lzscr_typesNtB7_4TypeNtB7_10TypesApply5applys0_0B7_
FN:175,_RNCNvXs0_Cs9UgpDRi4W1g_11lzscr_typesNtB7_4TypeNtB7_10TypesApply5applys1_0B7_
FN:168,_RNCNvXs0_Cs9UgpDRi4W1g_11lzscr_typesNtB7_4TypeNtB7_10TypesApply5applys_0B7_
FNDA:15,_RNvNtCs2EWVIURYuca_11lzscr_types3api11prelude_env
FNDA:11,_RNvNtCs2EWVIURYuca_11lzscr_types3api13infer_program
FNDA:0,_RNvNtCs2EWVIURYuca_11lzscr_types3api15infer_ast_debug
FNDA:0,_RNvNtCs2EWVIURYuca_11lzscr_types3api20infer_ast_debug_with
FNDA:11,_RNvNtCs2EWVIURYuca_11lzscr_types3api23infer_program_with_opts
FNDA:4,_RNvNtCs2EWVIURYuca_11lzscr_types3api9infer_ast
FNDA:105,_RNvNvNtCs2EWVIURYuca_11lzscr_types3api11prelude_env6record
FNDA:1,_RNvCs2EWVIURYuca_11lzscr_types10generalize
FNDA:75,_RNvCs2EWVIURYuca_11lzscr_types10infer_expr
FNDA:11,_RNvCs2EWVIURYuca_11lzscr_types10pop_tyvars
FNDA:17,_RNvCs2EWVIURYuca_11lzscr_types11instantiate
FNDA:0,_RNvCs2EWVIURYuca_11lzscr_types12lookup_tyvar
FNDA:13,_RNvCs2EWVIURYuca_11lzscr_types13infer_pattern
FNDA:0,_RNvCs2EWVIURYuca_11lzscr_types15short_expr_kind
FNDA:136,_RNvCs2EWVIURYuca_11lzscr_types16normalize_tuples
FNDA:3,_RNvCs2EWVIURYuca_11lzscr_types16user_pretty_type
FNDA:0,_RNvCs2EWVIURYuca_11lzscr_types19conv_typeexpr_fresh
FNDA:0,_RNvCs2EWVIURYuca_11lzscr_types20build_typedefs_frame
FNDA:0,_RNvCs2EWVIURYuca_11lzscr_types20build_typename_frame
FNDA:4,_RNvCs2EWVIURYuca_11lzscr_types20typedefs_lookup_ctor
FNDA:0,_RNvCs2EWVIURYuca_11lzscr_types21instantiate_named_sum
FNDA:0,_RNvCs2EWVIURYuca_11lzscr_types24conv_typeexpr_with_subst
FNDA:11,_RNvCs2EWVIURYuca_11lzscr_types24push_tyvars_from_pattern
FNDA:0,_RNvCs2EWVIURYuca_11lzscr_types24typedefs_lookup_typename
FNDA:0,_RNvCs2EWVIURYuca_11lzscr_types25check_positive_occurrence
FNDA:0,_RNvCs2EWVIURYuca_11lzscr_types27validate_typedecls_positive
FNDA:37,_RNvCs2EWVIURYuca_11lzscr_types4bind
FNDA:65,_RNvCs2EWVIURYuca_11lzscr_types5unify
FNDA:37,_RNvCs2EWVIURYuca_11lzscr_types6occurs
FNDA:6,_RNvCs2EWVIURYuca_11lzscr_types7pp_atom
FNDA:20,_RNvCs2EWVIURYuca_11lzscr_types7pp_type
FNDA:23,_RNvCs2EWVIURYuca_11lzscr_types9ctx_unify
FNDA:21,_RNvCs2EWVIURYuca_11lzscr_types9zonk_type
FNDA:1302,_RNvMCs2EWVIURYuca_11lzscr_typesNtB2_4Type3fun
FNDA:60,_RNvMs3_Cs2EWVIURYuca_11lzscr_typesNtB5_5TvGen5fresh
FNDA:17,_RNvMs4_Cs2EWVIURYuca_11lzscr_typesNtB5_7TypeEnv3get
FNDA:15,_RNvMs4_Cs2EWVIURYuca_11lzscr_typesNtB5_7TypeEnv3new
FNDA:414,_RNvMs4_Cs2EWVIURYuca_11lzscr_typesNtB5_7TypeEnv6insert
FNDA:0,_RNvMs5_Cs2EWVIURYuca_11lzscr_typesNtB5_11DebugConfig10log_scheme
FNDA:0,_RNvMs5_Cs2EWVIURYuca_11lzscr_typesNtB5_11DebugConfig8dump_env
FNDA:153,_RNvMs_Cs2EWVIURYuca_11lzscr_typesNtB4_5Subst3new
FNDA:85,_RNvMs_Cs2EWVIURYuca_11lzscr_typesNtB4_5Subst7compose
FNDA:37,_RNvMs_Cs2EWVIURYuca_11lzscr_typesNtB4_5Subst9singleton
FNDA:0,_RNvNvCs2EWVIURYuca_11lzscr_types10infer_expr12is_ctor_like
FNDA:3,_RNvNvCs2EWVIURYuca_11lzscr_types10infer_expr12is_list_like
FNDA:0,_RNvNvCs2EWVIURYuca_11lzscr_types10infer_expr13conv_typeexpr
FNDA:0,_RNvNvCs2EWVIURYuca_11lzscr_types10infer_expr14merge_variants
FNDA:5,_RNvNvCs2EWVIURYuca_11lzscr_types10infer_expr9merge_ret
FNDA:3,_RNvNvCs2EWVIURYuca_11lzscr_types16user_pretty_type13collect_order
FNDA:3,_RNvNvCs2EWVIURYuca_11lzscr_types16user_pretty_type2go
FNDA:0,_RNvNvCs2EWVIURYuca_11lzscr_types16user_pretty_type7name_of
FNDA:6,_RNvNvCs2EWVIURYuca_11lzscr_types7pp_type10rename_var
FNDA:265,_RNvXs0_Cs2EWVIURYuca_11lzscr_typesNtB5_4TypeNtB5_10TypesApply3ftv
FNDA:573,_RNvXs0_Cs2EWVIURYuca_11lzscr_typesNtB5_4TypeNtB5_10TypesApply5apply
FNDA:26,_RNvXs1_Cs2EWVIURYuca_11lzscr_typesNtB5_6SchemeNtB5_10TypesApply3ftv
FNDA:0,_RNvXs1_Cs2EWVIURYuca_11lzscr_typesNtB5_6SchemeNtB5_10TypesApply5apply
FNDA:0,_RNvXs2_Cs2EWVIURYuca_11lzscr_typesNtB5_5SubstNtB5_10TypesApply3ftv
FNDA:0,_RNvXs2_Cs2EWVIURYuca_11lzscr_typesNtB5_5SubstNtB5_10TypesApply5apply
FNDA:0,_RNCNvNtCs2EWVIURYuca_11lzscr_types3api23infer_program_with_opts0B5_
FNDA:0,_RINvMs5_Cs2EWVIURYuca_11lzscr_typesNtB6_11DebugConfig3logNtNtCs8Ty2CzGA6U3_5alloc6string6StringEB6_
FNDA:0,_RINvMs5_Cs2EWVIURYuca_11lzscr_typesNtB6_11DebugConfig3logReEB6_
FNDA:2,_RNCNCNvCs2EWVIURYuca_11lzscr_types7pp_types0_00B5_
FNDA:3,_RNCNCNvCs2EWVIURYuca_11lzscr_types9zonk_types1_00B5_
FNDA:0,_RNCNCNvNvCs2EWVIURYuca_11lzscr_types16user_pretty_type2gos1_00B7_
FNDA:6,_RNCNCNvXs0_Cs2EWVIURYuca_11lzscr_typesNtB9_4TypeNtB9_10TypesApply5applys1_00B9_
FNDA:26,_RNCNvCs2EWVIURYuca_11lzscr_types10generalize0B3_
FNDA:0,_RNCNvCs2EWVIURYuca_11lzscr_types10infer_expr0B3_
FNDA:0,_RNCNvCs2EWVIURYuca_11lzscr_types10infer_exprs0_0B3_
FNDA:0,_RNCNvCs2EWVIURYuca_11lzscr_types10infer_exprs1_0B3_
FNDA:3,_RNCNvCs2EWVIURYuca_11lzscr_types10infer_exprs2_0B3_
FNDA:4,_RNCNvCs2EWVIURYuca_11lzscr_types10infer_exprs3_0B3_
FNDA:1,_RNCNvCs2EWVIURYuca_11lzscr_types10infer_exprs4_0B3_
FNDA:0,_RNCNvCs2EWVIURYuca_11lzscr_types10infer_exprs5_0B3_
FNDA:1,_RNCNvCs2EWVIURYuca_11lzscr_types10infer_exprs_0B3_
FNDA:0,_RNCNvCs2EWVIURYuca_11lzscr_types13infer_pattern0B3_
FNDA:0,_RNCNvCs2EWVIURYuca_11lzscr_types13infer_patterns0_0B3_
FNDA:0,_RNCNvCs2EWVIURYuca_11lzscr_types13infer_patterns1_0B3_
FNDA:0,_RNCNvCs2EWVIURYuca_11lzscr_types13infer_patterns2_0B3_
FNDA:0,_RNCNvCs2EWVIURYuca_11lzscr_types13infer_patterns3_0B3_
FNDA:4,_RNCNvCs2EWVIURYuca_11lzscr_types13infer_patterns4_0B3_
FNDA:0,_RNCNvCs2EWVIURYuca_11lzscr_types13infer_patterns5_0B3_
FNDA:5,_RNCNvCs2EWVIURYuca_11lzscr_types13infer_patterns6_0B3_
FNDA:0,_RNCNvCs2EWVIURYuca_11lzscr_types13infer_patterns_0B3_
FNDA:14,_RNCNvCs2EWVIURYuca_11lzscr_types16normalize_tuples0B3_
FNDA:0,_RNCNvCs2EWVIURYuca_11lzscr_types16normalize_tupless_0B3_
FNDA:0,_RNCNvCs2EWVIURYuca_11lzscr_types19conv_typeexpr_fresh0B3_
FNDA:0,_RNCNvCs2EWVIURYuca_11lzscr_types19conv_typeexpr_freshs_0B3_
FNDA:0,_RNCNvCs2EWVIURYuca_11lzscr_types21instantiate_named_sum0B3_
FNDA:0,_RNCNvCs2EWVIURYuca_11lzscr_types24conv_typeexpr_with_subst0B3_
FNDA:0,_RNCNvCs2EWVIURYuca_11lzscr_types24conv_typeexpr_with_substs_0B3_
FNDA:0,_RNCNvCs2EWVIURYuca_11lzscr_types25check_positive_occurrence0B3_
FNDA:0,_RNCNvCs2EWVIURYuca_11lzscr_types25check_positive_occurrences0_0B3_
FNDA:0,_RNCNvCs2EWVIURYuca_11lzscr_types25check_positive_occurrences_0B3_
FNDA:0,_RNCNvCs2EWVIURYuca_11lzscr_types5unify0B3_
FNDA:0,_RNCNvCs2EWVIURYuca_11lzscr_types5unifys0_0B3_
FNDA:0,_RNCNvCs2EWVIURYuca_11lzscr_types5unifys_0B3_
FNDA:0,_RNCNvCs2EWVIURYuca_11lzscr_types7pp_type0B3_
FNDA:2,_RNCNvCs2EWVIURYuca_11lzscr_types7pp_types0_0B3_
FNDA:1,_RNCNvCs2EWVIURYuca_11lzscr_types7pp_types_0B3_
FNDA:0,_RNCNvCs2EWVIURYuca_11lzscr_types9ctx_unify0B3_
FNDA:0,_RNCNvCs2EWVIURYuca_11lzscr_types9zonk_type0B3_
FNDA:0,_RNCNvCs2EWVIURYuca_11lzscr_types9zonk_types0_0B3_
FNDA:2,_RNCNvCs2EWVIURYuca_11lzscr_types9zonk_types1_0B3_
FNDA:2,_RNCNvCs2EWVIURYuca_11lzscr_types9zonk_types_0B3_
FNDA:0,_RNCNvMs5_Cs2EWVIURYuca_11lzscr_typesNtB7_11DebugConfig8dump_env0B7_
FNDA:0,_RNCNvNvCs2EWVIURYuca_11lzscr_types10infer_expr13conv_typeexpr0B5_
FNDA:0,_RNCNvNvCs2EWVIURYuca_11lzscr_types10infer_expr13conv_typeexprs0_0B5_
FNDA:0,_RNCNvNvCs2EWVIURYuca_11lzscr_types10infer_expr13conv_typeexprs1_0B5_
FNDA:0,_RNCNvNvCs2EWVIURYuca_11lzscr_types10infer_expr13conv_typeexprs_0B5_
FNDA:0,_RNCNvNvCs2EWVIURYuca_11lzscr_types16user_pretty_type2go0B5_
FNDA:0,_RNCNvNvCs2EWVIURYuca_11lzscr_types16user_pretty_type2gos0_0B5_
FNDA:0,_RNCNvNvCs2EWVIURYuca_11lzscr_types16user_pretty_type2gos1_0B5_
FNDA:0,_RNCNvNvCs2EWVIURYuca_11lzscr_types16user_pretty_type2gos2_0B5_
FNDA:0,_RNCNvNvCs2EWVIURYuca_11lzscr_types16user_pretty_type2gos3_0B5_
FNDA:0,_RNCNvNvCs2EWVIURYuca_11lzscr_types16user_pretty_type2gos_0B5_
FNDA:0,_RNCNvXs0_Cs2EWVIURYuca_11lzscr_typesNtB7_4TypeNtB7_10TypesApply5apply0B7_
FNDA:0,_RNCNvXs0_Cs2EWVIURYuca_11lzscr_typesNtB7_4TypeNtB7_10TypesApply5applys0_0B7_
FNDA:4,_RNCNvXs0_Cs2EWVIURYuca_11lzscr_typesNtB7_4TypeNtB7_10TypesApply5applys1_0B7_
FNDA:8,_RNCNvXs0_Cs2EWVIURYuca_11lzscr_typesNtB7_4TypeNtB7_10TypesApply5applys_0B7_
FNDA:0,_RNCNvNtCs9UgpDRi4W1g_11lzscr_types3api23infer_program_with_opts0B5_
FNDA:1,_RNvNtCs9UgpDRi4W1g_11lzscr_types3api11prelude_env
FNDA:1,_RNvNtCs9UgpDRi4W1g_11lzscr_types3api13infer_program
FNDA:1,_RNvNtCs9UgpDRi4W1g_11lzscr_types3api23infer_program_with_opts
FNDA:7,_RNvNvNtCs9UgpDRi4W1g_11lzscr_types3api11prelude_env6record
FNDA:0,_RNvCs9UgpDRi4W1g_11lzscr_types10generalize
FNDA:1,_RNvCs9UgpDRi4W1g_11lzscr_types10infer_expr
FNDA:0,_RNvCs9UgpDRi4W1g_11lzscr_types10pop_tyvars
FNDA:0,_RNvCs9UgpDRi4W1g_11lzscr_types11instantiate
FNDA:0,_RNvCs9UgpDRi4W1g_11lzscr_types12lookup_tyvar
FNDA:0,_RNvCs9UgpDRi4W1g_11lzscr_types13infer_pattern
FNDA:0,_RNvCs9UgpDRi4W1g_11lzscr_types15short_expr_kind
FNDA:0,_RNvCs9UgpDRi4W1g_11lzscr_types16normalize_tuples
FNDA:0,_RNvCs9UgpDRi4W1g_11lzscr_types16user_pretty_type
FNDA:0,_RNvCs9UgpDRi4W1g_11lzscr_types19conv_typeexpr_fresh
FNDA:0,_RNvCs9UgpDRi4W1g_11lzscr_types20build_typedefs_frame
FNDA:0,_RNvCs9UgpDRi4W1g_11lzscr_types20build_typename_frame
FNDA:0,_RNvCs9UgpDRi4W1g_11lzscr_types20typedefs_lookup_ctor
FNDA:0,_RNvCs9UgpDRi4W1g_11lzscr_types21instantiate_named_sum
FNDA:0,_RNvCs9UgpDRi4W1g_11lzscr_types24conv_typeexpr_with_subst
FNDA:0,_RNvCs9UgpDRi4W1g_11lzscr_types24push_tyvars_from_pattern
FNDA:0,_RNvCs9UgpDRi4W1g_11lzscr_types24typedefs_lookup_typename
FNDA:0,_RNvCs9UgpDRi4W1g_11lzscr_types25check_positive_occurrence
FNDA:0,_RNvCs9UgpDRi4W1g_11lzscr_types27validate_typedecls_positive
FNDA:0,_RNvCs9UgpDRi4W1g_11lzscr_types4bind
FNDA:0,_RNvCs9UgpDRi4W1g_11lzscr_types5unify
FNDA:0,_RNvCs9UgpDRi4W1g_11lzscr_types6occurs
FNDA:0,_RNvCs9UgpDRi4W1g_11lzscr_types7pp_atom
FNDA:1,_RNvCs9UgpDRi4W1g_11lzscr_types7pp_type
FNDA:0,_RNvCs9UgpDRi4W1g_11lzscr_types9ctx_unify
FNDA:1,_RNvCs9UgpDRi4W1g_11lzscr_types9zonk_type
FNDA:74,_RNvMCs9UgpDRi4W1g_11lzscr_typesNtB2_4Type3fun
FNDA:0,_RNvMs3_Cs9UgpDRi4W1g_11lzscr_typesNtB5_5TvGen5fresh
FNDA:0,_RNvMs4_Cs9UgpDRi4W1g_11lzscr_typesNtB5_7TypeEnv3get
FNDA:1,_RNvMs4_Cs9UgpDRi4W1g_11lzscr_typesNtB5_7TypeEnv3new
FNDA:27,_RNvMs4_Cs9UgpDRi4W1g_11lzscr_typesNtB5_7TypeEnv6insert
FNDA:0,_RNvMs5_Cs9UgpDRi4W1g_11lzscr_typesNtB5_11DebugConfig10log_scheme
FNDA:0,_RNvMs5_Cs9UgpDRi4W1g_11lzscr_typesNtB5_11DebugConfig8dump_env
FNDA:1,_RNvMs_Cs9UgpDRi4W1g_11lzscr_typesNtB4_5Subst3new
FNDA:0,_RNvMs_Cs9UgpDRi4W1g_11lzscr_typesNtB4_5Subst7compose
FNDA:0,_RNvMs_Cs9UgpDRi4W1g_11lzscr_typesNtB4_5Subst9singleton
FNDA:0,_RNvNvCs9UgpDRi4W1g_11lzscr_types10infer_expr12is_ctor_like
FNDA:0,_RNvNvCs9UgpDRi4W1g_11lzscr_types10infer_expr12is_list_like
FNDA:0,_RNvNvCs9UgpDRi4W1g_11lzscr_types10infer_expr13conv_typeexpr
FNDA:0,_RNvNvCs9UgpDRi4W1g_11lzscr_types10infer_expr14merge_variants
FNDA:0,_RNvNvCs9UgpDRi4W1g_11lzscr_types10infer_expr9merge_ret
FNDA:0,_RNvNvCs9UgpDRi4W1g_11lzscr_types16user_pretty_type13collect_order
FNDA:0,_RNvNvCs9UgpDRi4W1g_11lzscr_types16user_pretty_type2go
FNDA:0,_RNvNvCs9UgpDRi4W1g_11lzscr_types16user_pretty_type7name_of
FNDA:0,_RNvNvCs9UgpDRi4W1g_11lzscr_types7pp_type10rename_var
FNDA:0,_RNvXs0_Cs9UgpDRi4W1g_11lzscr_typesNtB5_4TypeNtB5_10TypesApply3ftv
FNDA:1,_RNvXs0_Cs9UgpDRi4W1g_11lzscr_typesNtB5_4TypeNtB5_10TypesApply5apply
FNDA:0,_RNvXs1_Cs9UgpDRi4W1g_11lzscr_typesNtB5_6SchemeNtB5_10TypesApply3ftv
FNDA:0,_RNvNtCs9UgpDRi4W1g_11lzscr_types3api15infer_ast_debug
FNDA:0,_RNvNtCs9UgpDRi4W1g_11lzscr_types3api20infer_ast_debug_with
FNDA:0,_RNvNtCs9UgpDRi4W1g_11lzscr_types3api9infer_ast
FNDA:0,_RNvXs1_Cs9UgpDRi4W1g_11lzscr_typesNtB5_6SchemeNtB5_10TypesApply5apply
FNDA:0,_RNvXs2_Cs9UgpDRi4W1g_11lzscr_typesNtB5_5SubstNtB5_10TypesApply3ftv
FNDA:0,_RNvXs2_Cs9UgpDRi4W1g_11lzscr_typesNtB5_5SubstNtB5_10TypesApply5apply
FNDA:1,_RNvNtCs9UgpDRi4W1g_11lzscr_types5testss_18infer_char_literal
FNDA:0,_RINvMs5_Cs9UgpDRi4W1g_11lzscr_typesNtB6_11DebugConfig3logNtNtCs8Ty2CzGA6U3_5alloc6string6StringEB6_
FNDA:0,_RINvMs5_Cs9UgpDRi4W1g_11lzscr_typesNtB6_11DebugConfig3logReEB6_
FNDA:0,_RNCNCNvCs9UgpDRi4W1g_11lzscr_types7pp_types0_00B5_
FNDA:0,_RNCNCNvCs9UgpDRi4W1g_11lzscr_types9zonk_types1_00B5_
FNDA:0,_RNCNCNvNvCs9UgpDRi4W1g_11lzscr_types16user_pretty_type2gos1_00B7_
FNDA:0,_RNCNCNvXs0_Cs9UgpDRi4W1g_11lzscr_typesNtB9_4TypeNtB9_10TypesApply5applys1_00B9_
FNDA:0,_RNCNvCs9UgpDRi4W1g_11lzscr_types10generalize0B3_
FNDA:0,_RNCNvCs9UgpDRi4W1g_11lzscr_types10infer_expr0B3_
FNDA:0,_RNCNvCs9UgpDRi4W1g_11lzscr_types10infer_exprs0_0B3_
FNDA:0,_RNCNvCs9UgpDRi4W1g_11lzscr_types10infer_exprs1_0B3_
FNDA:0,_RNCNvCs9UgpDRi4W1g_11lzscr_types10infer_exprs2_0B3_
FNDA:0,_RNCNvCs9UgpDRi4W1g_11lzscr_types10infer_exprs3_0B3_
FNDA:0,_RNCNvCs9UgpDRi4W1g_11lzscr_types10infer_exprs4_0B3_
FNDA:0,_RNCNvCs9UgpDRi4W1g_11lzscr_types10infer_exprs5_0B3_
FNDA:0,_RNCNvCs9UgpDRi4W1g_11lzscr_types10infer_exprs_0B3_
FNDA:0,_RNCNvCs9UgpDRi4W1g_11lzscr_types13infer_pattern0B3_
FNDA:0,_RNCNvCs9UgpDRi4W1g_11lzscr_types13infer_patterns0_0B3_
FNDA:0,_RNCNvCs9UgpDRi4W1g_11lzscr_types13infer_patterns1_0B3_
FNDA:0,_RNCNvCs9UgpDRi4W1g_11lzscr_types13infer_patterns2_0B3_
FNDA:0,_RNCNvCs9UgpDRi4W1g_11lzscr_types13infer_patterns3_0B3_
FNDA:0,_RNCNvCs9UgpDRi4W1g_11lzscr_types13infer_patterns4_0B3_
FNDA:0,_RNCNvCs9UgpDRi4W1g_11lzscr_types13infer_patterns5_0B3_
FNDA:0,_RNCNvCs9UgpDRi4W1g_11lzscr_types13infer_patterns6_0B3_
FNDA:0,_RNCNvCs9UgpDRi4W1g_11lzscr_types13infer_patterns_0B3_
FNDA:0,_RNCNvCs9UgpDRi4W1g_11lzscr_types16normalize_tuples0B3_
FNDA:0,_RNCNvCs9UgpDRi4W1g_11lzscr_types16normalize_tupless_0B3_
FNDA:0,_RNCNvCs9UgpDRi4W1g_11lzscr_types19conv_typeexpr_fresh0B3_
FNDA:0,_RNCNvCs9UgpDRi4W1g_11lzscr_types19conv_typeexpr_freshs_0B3_
FNDA:0,_RNCNvCs9UgpDRi4W1g_11lzscr_types21instantiate_named_sum0B3_
FNDA:0,_RNCNvCs9UgpDRi4W1g_11lzscr_types24conv_typeexpr_with_subst0B3_
FNDA:0,_RNCNvCs9UgpDRi4W1g_11lzscr_types24conv_typeexpr_with_substs_0B3_
FNDA:0,_RNCNvCs9UgpDRi4W1g_11lzscr_types25check_positive_occurrence0B3_
FNDA:0,_RNCNvCs9UgpDRi4W1g_11lzscr_types25check_positive_occurrences0_0B3_
FNDA:0,_RNCNvCs9UgpDRi4W1g_11lzscr_types25check_positive_occurrences_0B3_
FNDA:0,_RNCNvCs9UgpDRi4W1g_11lzscr_types5unify0B3_
FNDA:0,_RNCNvCs9UgpDRi4W1g_11lzscr_types5unifys0_0B3_
FNDA:0,_RNCNvCs9UgpDRi4W1g_11lzscr_types5unifys_0B3_
FNDA:0,_RNCNvCs9UgpDRi4W1g_11lzscr_types7pp_type0B3_
FNDA:0,_RNCNvCs9UgpDRi4W1g_11lzscr_types7pp_types0_0B3_
FNDA:0,_RNCNvCs9UgpDRi4W1g_11lzscr_types7pp_types_0B3_
FNDA:0,_RNCNvCs9UgpDRi4W1g_11lzscr_types9ctx_unify0B3_
FNDA:0,_RNCNvCs9UgpDRi4W1g_11lzscr_types9zonk_type0B3_
FNDA:0,_RNCNvCs9UgpDRi4W1g_11lzscr_types9zonk_types0_0B3_
FNDA:0,_RNCNvCs9UgpDRi4W1g_11lzscr_types9zonk_types1_0B3_
FNDA:0,_RNCNvCs9UgpDRi4W1g_11lzscr_types9zonk_types_0B3_
FNDA:0,_RNCNvMs5_Cs9UgpDRi4W1g_11lzscr_typesNtB7_11DebugConfig8dump_env0B7_
FNDA:0,_RNCNvNvCs9UgpDRi4W1g_11lzscr_types10infer_expr13conv_typeexpr0B5_
FNDA:0,_RNCNvNvCs9UgpDRi4W1g_11lzscr_types10infer_expr13conv_typeexprs0_0B5_
FNDA:0,_RNCNvNvCs9UgpDRi4W1g_11lzscr_types10infer_expr13conv_typeexprs1_0B5_
FNDA:0,_RNCNvNvCs9UgpDRi4W1g_11lzscr_types10infer_expr13conv_typeexprs_0B5_
FNDA:0,_RNCNvNvCs9UgpDRi4W1g_11lzscr_types16user_pretty_type2go0B5_
FNDA:0,_RNCNvNvCs9UgpDRi4W1g_11lzscr_types16user_pretty_type2gos0_0B5_
FNDA:0,_RNCNvNvCs9UgpDRi4W1g_11lzscr_types16user_pretty_type2gos1_0B5_
FNDA:0,_RNCNvNvCs9UgpDRi4W1g_11lzscr_types16user_pretty_type2gos2_0B5_
FNDA:0,_RNCNvNvCs9UgpDRi4W1g_11lzscr_types16user_pretty_type2gos3_0B5_
FNDA:0,_RNCNvNvCs9UgpDRi4W1g_11lzscr_types16user_pretty_type2gos_0B5_
FNDA:0,_RNCNvXs0_Cs9UgpDRi4W1g_11lzscr_typesNtB7_4TypeNtB7_10TypesApply5apply0B7_
FNDA:0,_RNCNvXs0_Cs9UgpDRi4W1g_11lzscr_typesNtB7_4TypeNtB7_10TypesApply5applys0_0B7_
FNDA:0,_RNCNvXs0_Cs9UgpDRi4W1g_11lzscr_typesNtB7_4TypeNtB7_10TypesApply5applys1_0B7_
FNDA:0,_RNCNvXs0_Cs9UgpDRi4W1g_11lzscr_typesNtB7_4TypeNtB7_10TypesApply5applys_0B7_
FNF:119
FNH:55
DA:40,1376
DA:41,1376
DA:42,1376
DA:55,154
DA:56,154
DA:57,154
DA:58,37
DA:59,37
DA:60,37
DA:61,37
DA:62,37
DA:63,85
DA:65,85
DA:66,103
DA:67,103
DA:68,103
DA:69,85
DA:70,53
DA:71,53
DA:72,85
DA:73,85
DA:77,22
DA:78,22
DA:79,6
DA:80,6
DA:81,0
DA:83,6
DA:86,3
DA:87,1
DA:88,0
DA:89,0
DA:90,0
DA:91,0
DA:92,0
DA:93,0
DA:94,0
DA:96,2
DA:97,2
DA:98,2
DA:100,0
DA:101,0
DA:103,1
DA:104,1
DA:105,3
DA:106,1
DA:108,9
DA:110,22
DA:113,136
DA:114,14
DA:115,14
DA:116,14
DA:119,0
DA:120,0
DA:122,40
DA:123,0
DA:124,0
DA:125,0
DA:126,0
DA:127,0
DA:128,0
DA:129,0
DA:130,0
DA:132,14
DA:133,14
DA:135,0
DA:136,0
DA:138,0
DA:139,0
DA:140,0
DA:141,0
DA:143,82
DA:145,136
DA:153,574
DA:154,574
DA:155,196
DA:156,128
DA:157,1
DA:158,0
DA:159,0
DA:160,0
DA:161,0
DA:162,0
DA:163,0
DA:164,0
DA:166,28
DA:167,28
DA:168,28
DA:170,0
DA:171,0
DA:173,2
DA:174,2
DA:175,6
DA:176,2
DA:178,219
DA:179,219
DA:182,574
DA:183,265
DA:184,265
DA:185,265
DA:186,48
DA:187,48
DA:188,48
DA:189,80
DA:190,80
DA:191,80
DA:192,80
DA:193,10
DA:194,10
DA:195,10
DA:196,0
DA:197,0
DA:198,0
DA:199,0
DA:201,13
DA:202,29
DA:203,29
DA:204,29
DA:206,6
DA:207,6
DA:208,0
DA:209,0
DA:211,0
DA:212,0
DA:213,0
DA:214,0
DA:216,3
DA:217,9
DA:218,8
DA:219,2
DA:220,2
DA:223,105
DA:225,265
DA:226,265
DA:230,0
DA:232,0
DA:233,0
DA:234,0
DA:235,0
DA:236,0
DA:238,0
DA:239,0
DA:240,26
DA:241,26
DA:242,45
DA:243,19
DA:244,19
DA:245,26
DA:246,26
DA:250,0
DA:251,0
DA:252,0
DA:253,0
DA:254,0
DA:255,0
DA:256,0
DA:257,0
DA:258,0
DA:259,0
DA:260,0
DA:261,0
DA:262,0
DA:263,0
DA:271,60
DA:272,60
DA:273,60
DA:274,60
DA:275,60
DA:282,0
DA:283,0
DA:284,0
DA:285,0
DA:286,0
DA:287,0
DA:288,0
DA:289,0
DA:293,0
DA:294,0
DA:296,4
DA:297,4
DA:298,0
DA:299,0
DA:300,0
DA:302,4
DA:303,4
DA:315,0
DA:316,0
DA:317,0
DA:318,0
DA:319,0
DA:320,0
DA:321,0
DA:322,0
DA:323,0
DA:324,0
DA:325,0
DA:326,0
DA:327,0
DA:328,0
DA:329,0
DA:330,0
DA:332,0
DA:333,0
DA:334,0
DA:335,0
DA:336,0
DA:338,0
DA:339,0
DA:369,37
DA:370,37
DA:371,37
DA:374,65
DA:375,65
DA:376,19
DA:377,18
DA:383,7
DA:384,17
DA:385,17
DA:386,17
DA:387,17
DA:389,0
DA:390,0
DA:391,0
DA:392,0
DA:393,0
DA:394,0
DA:395,0
DA:397,0
DA:399,0
DA:400,0
DA:401,0
DA:402,0
DA:403,0
DA:404,0
DA:407,0
DA:408,0
DA:409,0
DA:411,0
DA:413,4
DA:414,4
DA:416,4
DA:417,5
DA:418,5
DA:419,5
DA:421,4
DA:423,0
DA:425,0
DA:426,0
DA:427,0
DA:428,0
DA:429,0
DA:430,0
DA:431,0
DA:432,0
DA:433,0
DA:434,0
DA:435,0
DA:436,0
DA:437,0
DA:438,0
DA:439,0
DA:440,0
DA:441,0
DA:444,0
DA:445,0
DA:446,0
DA:447,0
DA:448,0
DA:449,0
DA:450,0
DA:451,0
DA:452,0
DA:453,0
DA:454,0
DA:455,0
DA:458,0
DA:461,0
DA:462,0
DA:463,0
DA:464,0
DA:465,0
DA:466,0
DA:467,0
DA:468,0
DA:469,0
DA:470,0
DA:471,0
DA:472,0
DA:473,0
DA:474,0
DA:475,0
DA:477,0
DA:479,0
DA:480,0
DA:481,0
DA:482,0
DA:483,0
DA:484,0
DA:487,0
DA:488,0
DA:489,0
DA:490,0
DA:491,0
DA:492,0
DA:494,65
DA:497,0
DA:498,0
DA:504,0
DA:505,0
DA:506,0
DA:507,0
DA:508,0
DA:509,0
DA:510,0
DA:512,0
DA:513,0
DA:514,0
DA:516,0
DA:517,0
DA:518,0
DA:521,0
DA:524,0
DA:525,0
DA:526,0
DA:527,0
DA:528,0
DA:529,0
DA:530,0
DA:531,0
DA:532,0
DA:533,0
DA:534,0
DA:535,0
DA:539,0
DA:540,0
DA:544,0
DA:545,0
DA:546,0
DA:547,0
DA:548,0
DA:549,0
DA:550,0
DA:551,0
DA:552,0
DA:553,0
DA:554,0
DA:555,0
DA:556,0
DA:557,0
DA:558,0
DA:559,0
DA:560,0
DA:562,0
DA:563,0
DA:564,0
DA:565,0
DA:567,0
DA:569,0
DA:570,0
DA:571,0
DA:573,0
DA:574,0
DA:575,0
DA:576,0
DA:577,0
DA:578,0
DA:579,0
DA:581,0
DA:584,0
DA:585,0
DA:587,0
DA:588,0
DA:589,0
DA:590,0
DA:591,0
DA:595,0
DA:596,0
DA:597,0
DA:598,0
DA:599,0
DA:602,0
DA:605,0
DA:606,0
DA:607,0
DA:608,0
DA:609,0
DA:610,0
DA:611,0
DA:614,0
DA:615,0
DA:616,0
DA:617,0
DA:618,0
DA:619,0
DA:620,0
DA:621,0
DA:622,0
DA:623,0
DA:624,0
DA:625,0
DA:626,0
DA:627,0
DA:628,0
DA:629,0
DA:630,0
DA:631,0
DA:632,0
DA:633,0
DA:634,0
DA:635,0
DA:637,0
DA:639,0
DA:640,0
DA:644,23
DA:645,23
DA:646,0
DA:647,0
DA:648,0
DA:649,0
DA:650,0
DA:651,0
DA:652,0
DA:653,23
DA:655,23
DA:656,23
DA:657,23
DA:658,0
DA:659,0
DA:660,0
DA:662,0
DA:663,0
DA:664,0
DA:666,23
DA:668,23
DA:669,0
DA:670,0
DA:671,0
DA:672,0
DA:673,0
DA:675,0
DA:676,0
DA:677,0
DA:678,0
DA:680,0
DA:681,0
DA:682,0
DA:683,0
DA:684,0
DA:686,0
DA:687,0
DA:688,0
DA:689,0
DA:690,0
DA:691,0
DA:692,0
DA:694,0
DA:695,23
DA:696,23
DA:697,23
DA:700,37
DA:701,37
DA:702,5
DA:703,37
DA:704,37
DA:706,37
DA:714,16
DA:715,16
DA:716,16
DA:717,441
DA:718,441
DA:719,441
DA:720,17
DA:721,17
DA:722,17
DA:725,17
DA:726,17
DA:727,41
DA:728,24
DA:729,24
DA:730,17
DA:731,17
DA:732,17
DA:734,1
DA:735,26
DA:736,1
DA:737,1
DA:738,1
DA:739,1
DA:750,13
DA:751,13
DA:752,13
DA:753,13
DA:754,13
DA:755,13
DA:756,1
DA:757,8
DA:758,8
DA:761,0
DA:764,0
DA:767,0
DA:770,0
DA:773,0
DA:776,0
DA:778,0
DA:779,0
DA:780,0
DA:781,0
DA:782,0
DA:783,0
DA:784,0
DA:785,0
DA:786,0
DA:787,0
DA:788,0
DA:789,0
DA:790,0
DA:791,0
DA:793,0
DA:795,0
DA:796,0
DA:797,0
DA:798,0
DA:799,0
DA:800,0
DA:801,0
DA:802,0
DA:804,0
DA:806,0
DA:807,0
DA:808,0
DA:809,0
DA:810,0
DA:811,0
DA:812,0
DA:813,0
DA:814,0
DA:815,0
DA:816,0
DA:818,0
DA:819,0
DA:820,0
DA:821,0
DA:822,0
DA:823,0
DA:824,0
DA:825,0
DA:826,0
DA:827,0
DA:828,0
DA:829,0
DA:830,0
DA:832,0
DA:834,4
DA:837,4
DA:838,4
DA:839,0
DA:841,0
DA:842,0
DA:843,0
DA:844,0
DA:846,0
DA:849,0
DA:852,4
DA:855,4
DA:856,0
DA:858,0
DA:859,0
DA:860,0
DA:861,0
DA:862,0
DA:863,0
DA:865,0
DA:868,5
DA:870,4
DA:871,4
DA:872,4
DA:873,5
DA:874,5
DA:875,5
DA:876,5
DA:878,4
DA:880,0
DA:881,0
DA:882,0
DA:883,0
DA:885,0
DA:886,0
DA:887,0
DA:888,0
DA:889,0
DA:890,0
DA:892,0
DA:894,0
DA:897,13
DA:922,0
DA:923,0
DA:924,0
DA:925,0
DA:926,0
DA:927,0
DA:928,0
DA:929,0
DA:930,0
DA:931,0
DA:932,0
DA:933,0
DA:934,0
DA:935,0
DA:936,0
DA:937,0
DA:938,0
DA:939,0
DA:940,0
DA:943,0
DA:944,0
DA:945,0
DA:946,0
DA:947,0
DA:949,0
DA:950,0
DA:952,11
DA:953,11
DA:954,11
DA:955,11
DA:956,0
DA:957,0
DA:959,0
DA:960,0
DA:961,0
DA:962,0
DA:963,0
DA:965,0
DA:966,0
DA:967,0
DA:969,11
DA:970,11
DA:972,11
DA:973,11
DA:974,0
DA:975,0
DA:976,11
DA:980,0
DA:981,0
DA:982,0
DA:983,0
DA:984,0
DA:985,0
DA:986,0
DA:987,0
DA:988,0
DA:989,0
DA:990,0
DA:991,0
DA:992,0
DA:993,0
DA:994,0
DA:995,0
DA:997,0
DA:998,0
DA:999,0
DA:1000,0
DA:1002,0
DA:1003,0
DA:1005,0
DA:1008,76
DA:1009,76
DA:1010,76
DA:1011,76
DA:1012,76
DA:1014,76
DA:1015,0
DA:1016,76
DA:1017,76
DA:1019,0
DA:1020,0
DA:1021,0
DA:1022,0
DA:1023,0
DA:1024,0
DA:1025,0
DA:1026,0
DA:1027,0
DA:1028,0
DA:1029,0
DA:1031,0
DA:1032,0
DA:1033,0
DA:1034,0
DA:1035,0
DA:1036,0
DA:1038,0
DA:1039,0
DA:1041,0
DA:1042,0
DA:1043,0
DA:1044,0
DA:1045,0
DA:1047,0
DA:1050,0
DA:1051,0
DA:1052,0
DA:1055,0
DA:1056,0
DA:1057,0
DA:1058,0
DA:1059,0
DA:1060,0
DA:1063,0
DA:1064,0
DA:1065,0
DA:1066,0
DA:1067,0
DA:1068,0
DA:1069,0
DA:1070,0
DA:1072,0
DA:1073,0
DA:1077,0
DA:1079,76
DA:1080,0
DA:1081,0
DA:1082,0
DA:1083,0
DA:1084,0
DA:1085,0
DA:1087,0
DA:1088,2
DA:1089,14
DA:1090,0
DA:1091,6
DA:1092,1
DA:1093,17
DA:1094,17
DA:1095,0
DA:1096,0
DA:1097,0
DA:1098,0
DA:1099,17
DA:1100,17
DA:1101,0
DA:1102,0
DA:1103,17
DA:1104,17
DA:1106,6
DA:1108,6
DA:1110,2
DA:1112,2
DA:1113,2
DA:1114,2
DA:1115,2
DA:1116,4
DA:1117,2
DA:1118,2
DA:1119,2
DA:1120,2
DA:1121,2
DA:1122,2
DA:1123,2
DA:1124,2
DA:1126,22
DA:1129,22
DA:1130,13
DA:1131,0
DA:1132,0
DA:1134,0
DA:1135,0
DA:1136,0
DA:1138,0
DA:1139,0
DA:1141,0
DA:1142,0
DA:1143,0
DA:1144,0
DA:1145,0
DA:1146,0
DA:1147,0
DA:1148,0
DA:1149,0
DA:1150,0
DA:1151,0
DA:1152,0
DA:1153,0
DA:1154,0
DA:1155,0
DA:1156,0
DA:1157,0
DA:1158,0
DA:1159,0
DA:1160,0
DA:1161,0
DA:1162,0
DA:1163,0
DA:1164,0
DA:1165,0
DA:1166,0
DA:1167,0
DA:1168,0
DA:1170,0
DA:1171,0
DA:1172,0
DA:1174,0
DA:1175,0
DA:1176,0
DA:1177,0
DA:1178,0
DA:1179,0
DA:1180,0
DA:1181,0
DA:1184,0
DA:1186,0
DA:1187,0
DA:1188,0
DA:1189,0
DA:1190,0
DA:1191,0
DA:1192,0
DA:1193,0
DA:1195,0
DA:1196,0
DA:1197,0
DA:1198,0
DA:1199,0
DA:1201,0
DA:1202,0
DA:1203,0
DA:1204,0
DA:1205,0
DA:1206,0
DA:1207,0
DA:1208,13
DA:1209,9
DA:1211,22
DA:1212,1
DA:1213,1
DA:1215,1
DA:1216,0
DA:1217,0
DA:1218,0
DA:1219,0
DA:1220,0
DA:1222,0
DA:1223,0
DA:1224,0
DA:1225,0
DA:1226,0
DA:1227,0
DA:1228,0
DA:1229,0
DA:1231,0
DA:1232,0
DA:1233,0
DA:1235,1
DA:1238,1
DA:1239,1
DA:1241,0
DA:1242,21
DA:1246,21
DA:1248,6
DA:1249,6
DA:1251,0
DA:1253,6
DA:1254,6
DA:1255,0
DA:1256,0
DA:1257,0
DA:1258,0
DA:1262,6
DA:1263,6
DA:1264,6
DA:1266,15
DA:1268,21
DA:1269,13
DA:1270,13
DA:1271,2
DA:1272,2
DA:1273,2
DA:1274,2
DA:1275,11
DA:1276,11
DA:1278,2
DA:1279,2
DA:1280,2
DA:1281,2
DA:1282,9
DA:1283,9
DA:1285,1
DA:1286,1
DA:1287,1
DA:1288,1
DA:1289,1
DA:1290,1
DA:1291,0
DA:1292,1
DA:1293,1
DA:1294,8
DA:1295,0
DA:1296,8
DA:1297,16
DA:1298,16
DA:1299,16
DA:1300,16
DA:1301,16
DA:1302,16
DA:1304,16
DA:1305,8
DA:1306,4
DA:1307,4
DA:1308,2
DA:1309,2
DA:1310,2
DA:1311,2
DA:1312,2
DA:1313,0
DA:1314,4
DA:1315,8
DA:1316,14
DA:1318,0
DA:1319,1
DA:1320,1
DA:1321,1
DA:1322,3
DA:1323,2
DA:1324,2
DA:1325,2
DA:1327,1
DA:1329,1
DA:1334,1
DA:1336,1
DA:1337,0
DA:1338,1
DA:1339,1
DA:1340,0
DA:1341,0
DA:1342,0
DA:1343,0
DA:1345,0
DA:1348,1
DA:1350,1
DA:1351,0
DA:1352,0
DA:1353,0
DA:1354,0
DA:1356,0
DA:1359,1
DA:1368,1
DA:1370,1
DA:1371,1
DA:1372,1
DA:1373,1
DA:1374,1
DA:1376,2
DA:1377,1
DA:1378,1
DA:1380,1
DA:1381,0
DA:1382,0
DA:1383,0
DA:1384,0
DA:1385,0
DA:1386,0
DA:1387,0
DA:1388,1
DA:1389,1
DA:1393,1
DA:1394,1
DA:1395,1
DA:1396,1
DA:1397,1
DA:1399,1
DA:1400,1
DA:1402,1
DA:1404,1
DA:1405,1
DA:1406,1
DA:1407,1
DA:1408,1
DA:1409,0
DA:1410,1
DA:1412,1
DA:1414,1
DA:1415,1
DA:1416,0
DA:1417,1
DA:1420,1
DA:1421,1
DA:1422,1
DA:1423,0
DA:1424,1
DA:1425,1
DA:1426,0
DA:1427,1
DA:1428,1
DA:1429,1
DA:1431,0
DA:1432,0
DA:1433,0
DA:1434,0
DA:1436,0
DA:1437,0
DA:1438,0
DA:1439,0
DA:1440,0
DA:1441,0
DA:1443,0
DA:1444,0
DA:1445,0
DA:1446,0
DA:1447,0
DA:1448,0
DA:1449,0
DA:1450,0
DA:1451,0
DA:1453,4
DA:1455,4
DA:1456,4
DA:1457,0
DA:1459,4
DA:1460,4
DA:1461,0
DA:1465,4
DA:1466,4
DA:1470,4
DA:1471,4
DA:1472,4
DA:1473,4
DA:1474,4
DA:1475,4
DA:1476,4
DA:1477,4
DA:1479,1
DA:1480,1
DA:1481,1
DA:1482,3
DA:1486,3
DA:1487,3
DA:1488,3
DA:1489,3
DA:1492,3
DA:1493,3
DA:1494,3
DA:1495,5
DA:1496,5
DA:1497,5
DA:1498,5
DA:1499,5
DA:1500,5
DA:1501,0
DA:1502,0
DA:1503,0
DA:1504,0
DA:1505,0
DA:1507,0
DA:1508,0
DA:1509,0
DA:1510,0
DA:1511,0
DA:1513,0
DA:1515,5
DA:1517,5
DA:1520,3
DA:1521,3
DA:1522,3
DA:1523,3
DA:1524,0
DA:1525,3
DA:1528,3
DA:1530,0
DA:1532,0
DA:1533,0
DA:1534,0
DA:1535,0
DA:1536,0
DA:1537,0
DA:1538,0
DA:1539,0
DA:1541,0
DA:1542,0
DA:1543,0
DA:1544,0
DA:1545,0
DA:1547,0
DA:1548,0
DA:1549,0
DA:1552,0
DA:1554,0
DA:1555,0
DA:1557,3
DA:1558,3
DA:1559,3
DA:1560,0
DA:1561,0
DA:1562,0
DA:1563,3
DA:1564,3
DA:1565,3
DA:1566,3
DA:1567,3
DA:1568,6
DA:1569,3
DA:1570,3
DA:1571,3
DA:1572,3
DA:1573,3
DA:1574,3
DA:1575,3
DA:1576,3
DA:1577,3
DA:1578,3
DA:1579,0
DA:1580,0
DA:1581,0
DA:1582,0
DA:1585,0
DA:1586,3
DA:1587,3
DA:1589,0
DA:1590,0
DA:1591,0
DA:1592,0
DA:1593,0
DA:1594,0
DA:1595,0
DA:1596,0
DA:1597,0
DA:1598,0
DA:1599,0
DA:1600,0
DA:1601,0
DA:1602,0
DA:1603,0
DA:1604,0
DA:1605,0
DA:1606,0
DA:1607,0
DA:1608,0
DA:1609,0
DA:1610,0
DA:1611,0
DA:1612,0
DA:1613,0
DA:1616,0
DA:1617,0
DA:1618,0
DA:1622,0
DA:1623,0
DA:1624,0
DA:1625,0
DA:1626,0
DA:1627,0
DA:1628,0
DA:1629,0
DA:1630,0
DA:1631,0
DA:1632,0
DA:1633,0
DA:1634,0
DA:1635,0
DA:1636,0
DA:1637,0
DA:1638,0
DA:1641,0
DA:1642,0
DA:1643,0
DA:1648,3
DA:1650,1
DA:1651,1
DA:1652,1
DA:1653,0
DA:1654,0
DA:1655,1
DA:1656,1
DA:1657,1
DA:1658,1
DA:1659,1
DA:1660,1
DA:1661,1
DA:1662,0
DA:1663,1
DA:1664,1
DA:1665,1
DA:1666,1
DA:1669,0
DA:1670,1
DA:1671,1
DA:1673,2
DA:1674,4
DA:1675,2
DA:1676,1
DA:1677,1
DA:1678,1
DA:1679,1
DA:1680,1
DA:1681,1
DA:1682,1
DA:1683,1
DA:1684,3
DA:1685,2
DA:1686,2
DA:1687,1
DA:1688,1
DA:1689,1
DA:1690,1
DA:1691,1
DA:1692,1
DA:1693,1
DA:1694,0
DA:1695,1
DA:1696,1
DA:1697,1
DA:1698,1
DA:1701,0
DA:1702,1
DA:1703,1
DA:1705,0
DA:1706,0
DA:1707,0
DA:1708,0
DA:1709,0
DA:1710,0
DA:1711,0
DA:1712,0
DA:1713,0
DA:1714,0
DA:1715,0
DA:1716,0
DA:1717,0
DA:1718,0
DA:1719,0
DA:1720,0
DA:1721,0
DA:1722,0
DA:1723,0
DA:1724,0
DA:1725,0
DA:1726,0
DA:1727,0
DA:1728,0
DA:1729,0
DA:1732,0
DA:1733,0
DA:1734,0
DA:1737,0
DA:1738,0
DA:1739,0
DA:1740,0
DA:1741,0
DA:1742,0
DA:1743,0
DA:1744,0
DA:1745,0
DA:1746,0
DA:1747,0
DA:1748,0
DA:1749,0
DA:1750,0
DA:1751,0
DA:1752,0
DA:1753,0
DA:1756,0
DA:1757,0
DA:1758,0
DA:1762,2
DA:1763,2
DA:1765,2
DA:1766,2
DA:1767,1
DA:1768,1
DA:1769,1
DA:1770,1
DA:1771,1
DA:1773,0
DA:1775,2
DA:1776,0
DA:1777,0
DA:1778,0
DA:1780,0
DA:1781,0
DA:1783,2
DA:1785,2
DA:1788,0
DA:1790,2
DA:1793,66
DA:1794,66
DA:1795,0
DA:1796,0
DA:1797,0
DA:1798,0
DA:1799,0
DA:1800,0
DA:1801,0
DA:1802,66
DA:1803,66
DA:1804,76
DA:1806,0
DA:1808,0
DA:1809,0
DA:1810,0
DA:1811,0
DA:1812,0
DA:1813,0
DA:1814,0
DA:1815,0
DA:1816,0
DA:1817,0
DA:1818,0
DA:1819,0
DA:1820,0
DA:1821,0
DA:1822,0
DA:1823,0
DA:1824,0
DA:1825,0
DA:1826,0
DA:1828,0
DA:1832,21
DA:1833,6
DA:1836,6
DA:1837,6
DA:1838,21
DA:1839,1
DA:1840,6
DA:1841,0
DA:1842,0
DA:1843,0
DA:1844,1
DA:1845,6
DA:1846,1
DA:1847,0
DA:1848,0
DA:1849,0
DA:1850,0
DA:1851,0
DA:1852,0
DA:1854,3
DA:1855,2
DA:1856,2
DA:1857,0
DA:1859,2
DA:1862,0
DA:1863,0
DA:1864,0
DA:1866,0
DA:1869,1
DA:1870,1
DA:1871,1
DA:1872,1
DA:1873,1
DA:1874,2
DA:1875,0
DA:1876,1
DA:1878,2
DA:1879,1
DA:1881,2
DA:1882,1
DA:1883,1
DA:1884,1
DA:1887,21
DA:1889,6
DA:1890,6
DA:1891,0
DA:1892,6
DA:1894,6
DA:1898,3
DA:1901,3
DA:1902,3
DA:1903,0
DA:1904,0
DA:1905,0
DA:1906,0
DA:1908,0
DA:1909,0
DA:1910,0
DA:1911,0
DA:1912,0
DA:1913,0
DA:1914,0
DA:1915,0
DA:1916,0
DA:1918,0
DA:1919,0
DA:1920,0
DA:1921,0
DA:1923,0
DA:1924,0
DA:1925,0
DA:1926,0
DA:1928,0
DA:1929,0
DA:1930,0
DA:1931,0
DA:1933,0
DA:1934,0
DA:1935,0
DA:1936,0
DA:1937,0
DA:1940,3
DA:1942,3
DA:1943,3
DA:1944,3
DA:1946,0
DA:1947,0
DA:1948,0
DA:1950,0
DA:1952,0
DA:1953,3
DA:1954,3
DA:1955,0
DA:1956,0
DA:1959,3
DA:1960,3
DA:1961,3
DA:1962,3
DA:1963,3
DA:1964,3
DA:1965,3
DA:1966,3
DA:1967,0
DA:1968,3
DA:1969,3
DA:1970,0
DA:1971,1
DA:1972,2
DA:1973,0
DA:1974,0
DA:1975,0
DA:1976,0
DA:1977,0
DA:1978,0
DA:1979,0
DA:1980,0
DA:1981,0
DA:1983,0
DA:1984,0
DA:1985,0
DA:1986,0
DA:1987,0
DA:1988,0
DA:1989,0
DA:1991,0
DA:1992,0
DA:1993,0
DA:1994,0
DA:1996,0
DA:1997,0
DA:1999,0
DA:2000,0
DA:2001,0
DA:2003,0
DA:2004,0
DA:2006,0
DA:2007,0
DA:2008,0
DA:2009,0
DA:2010,0
DA:2011,0
DA:2013,0
DA:2015,0
DA:2016,0
DA:2017,0
DA:2021,0
DA:2022,0
DA:2023,0
DA:2025,0
DA:2026,0
DA:2028,0
DA:2029,0
DA:2030,0
DA:2031,0
DA:2032,0
DA:2034,0
DA:2036,0
DA:2037,0
DA:2038,0
DA:2042,0
DA:2043,0
DA:2044,0
DA:2045,0
DA:2046,0
DA:2047,0
DA:2049,0
DA:2050,0
DA:2052,0
DA:2053,0
DA:2054,0
DA:2055,0
DA:2056,0
DA:2058,0
DA:2060,0
DA:2061,0
DA:2062,0
DA:2065,0
DA:2066,0
DA:2067,0
DA:2068,0
DA:2071,3
DA:2072,3
DA:2073,3
DA:2074,3
DA:2076,3
DA:2077,3
DA:2093,12
DA:2094,12
DA:2095,12
DA:2098,12
DA:2099,12
DA:2100,12
DA:2101,12
DA:2102,12
DA:2103,12
DA:2104,12
DA:2105,12
DA:2106,12
DA:2107,12
DA:2108,12
DA:2109,12
DA:2110,9
DA:2111,9
DA:2112,9
DA:2113,0
DA:2115,9
DA:2118,3
DA:2120,12
DA:2124,4
DA:2125,4
DA:2126,4
DA:2127,4
DA:2128,4
DA:2129,4
DA:2130,4
DA:2131,4
DA:2132,4
DA:2133,4
DA:2134,4
DA:2135,3
DA:2136,1
DA:2138,4
DA:2142,0
DA:2143,0
DA:2144,0
DA:2145,0
DA:2146,0
DA:2147,0
DA:2148,0
DA:2149,0
DA:2150,0
DA:2151,0
DA:2152,0
DA:2153,0
DA:2154,0
DA:2155,0
DA:2156,0
DA:2157,0
DA:2158,0
DA:2159,0
DA:2160,0
DA:2161,0
DA:2162,0
DA:2163,0
DA:2165,0
DA:2166,0
DA:2167,0
DA:2168,0
DA:2169,0
DA:2170,0
DA:2171,0
DA:2172,0
DA:2173,0
DA:2174,0
DA:2175,0
DA:2176,0
DA:2177,0
DA:2180,0
DA:2181,0
DA:2182,0
DA:2183,0
DA:2184,0
DA:2185,0
DA:2186,0
DA:2187,0
DA:2188,0
DA:2189,0
DA:2190,0
DA:2191,0
DA:2192,0
DA:2193,0
DA:2194,0
DA:2195,0
DA:2196,0
DA:2197,0
DA:2198,0
DA:2199,0
DA:2200,0
DA:2201,0
DA:2202,0
DA:2203,0
DA:2205,16
DA:2206,16
DA:2209,16
DA:2210,16
DA:2211,16
DA:2212,16
DA:2213,16
DA:2215,16
DA:2217,16
DA:2218,16
DA:2221,16
DA:2222,16
DA:2223,16
DA:2225,16
DA:2226,16
DA:2227,16
DA:2229,16
DA:2231,16
DA:2232,16
DA:2234,16
DA:2235,16
DA:2236,16
DA:2237,16
DA:2239,16
DA:2240,16
DA:2241,16
DA:2242,16
DA:2244,16
DA:2245,16
DA:2246,16
DA:2247,16
DA:2248,16
DA:2250,16
DA:2252,16
DA:2253,16
DA:2254,16
DA:2255,16
DA:2258,16
DA:2259,16
DA:2260,16
DA:2262,16
DA:2263,16
DA:2264,16
DA:2266,16
DA:2267,16
DA:2268,16
DA:2270,16
DA:2271,16
DA:2272,16
DA:2273,16
DA:2274,16
DA:2275,16
DA:2277,16
DA:2278,16
DA:2279,16
DA:2281,16
DA:2282,16
DA:2283,16
DA:2285,16
DA:2286,16
DA:2287,16
DA:2289,16
DA:2290,16
DA:2291,16
DA:2295,16
DA:2296,16
DA:2297,16
DA:2298,16
DA:2299,16
DA:2300,16
DA:2303,16
DA:2307,16
DA:2308,16
DA:2309,16
DA:2310,16
DA:2311,16
DA:2312,16
DA:2313,16
DA:2314,16
DA:2315,16
DA:2316,16
DA:2317,16
DA:2319,16
DA:2320,16
DA:2321,16
DA:2322,16
DA:2323,16
DA:2325,16
DA:2326,16
DA:2327,16
DA:2328,16
DA:2329,16
DA:2330,16
DA:2331,16
DA:2332,16
DA:2333,16
DA:2334,16
DA:2335,16
DA:2336,16
DA:2338,16
DA:2339,16
DA:2340,16
DA:2341,16
DA:2342,16
DA:2343,16
DA:2344,16
DA:2345,16
DA:2348,16
DA:2349,16
DA:2350,16
DA:2353,16
DA:2354,16
DA:2355,16
DA:2356,16
DA:2358,16
DA:2361,112
DA:2362,112
DA:2363,480
DA:2364,368
DA:2365,368
DA:2366,112
DA:2367,112
DA:2369,16
DA:2370,16
DA:2371,16
DA:2372,16
DA:2374,16
DA:2375,16
DA:2376,16
DA:2377,16
DA:2378,16
DA:2379,16
DA:2380,16
DA:2381,16
DA:2382,16
DA:2383,16
DA:2384,16
DA:2385,16
DA:2386,16
DA:2389,16
DA:2391,16
DA:2392,16
DA:2393,16
DA:2394,16
DA:2395,16
DA:2398,16
DA:2399,16
DA:2400,16
DA:2403,16
DA:2404,16
DA:2406,16
DA:2407,16
DA:2409,16
DA:2410,16
DA:2411,16
DA:2412,16
DA:2413,16
DA:2414,16
DA:2415,16
DA:2416,16
DA:2417,16
DA:2419,16
DA:2420,16
DA:2421,16
DA:2422,16
DA:2423,16
DA:2424,16
DA:2425,16
DA:2426,16
DA:2427,16
DA:2428,16
DA:2429,16
DA:2430,16
DA:2431,16
DA:2432,16
DA:2433,16
DA:2434,16
DA:2435,16
DA:2437,16
DA:2438,16
DA:2439,16
DA:2440,16
DA:2441,16
DA:2442,16
DA:2444,16
DA:2445,16
DA:2446,16
DA:2454,1
DA:2455,1
DA:2456,1
DA:2457,1
BRF:0
BRH:0
LF:1844
LH:774
end_of_record